c__builtin__
set
p1
((lp2
S'effy-collection'
p3
aS'gai'
p4
aS'monette'
p5
aVpajama
p6
aS'mywalit'
p7
aVdynamic
p8
aVyellow
p9
aS'four'
p10
aS'andre'
p11
aS'minionyellow'
p12
aS'francesco'
p13
aS'msgm'
p14
aS'francesca'
p15
aS'gabriella'
p16
aS'captain'
p17
aS'jellypop'
p18
aS'gabrielle'
p19
aS'sfft'
p20
aS'guerreri'
p21
aS'charles-keith'
p22
aS'catarzi'
p23
aS'swan'
p24
aS'loro'
p25
aS'pantone'
p26
aS'abro'
p27
aVjrme
p28
aS'swivel'
p29
aS'miele'
p30
aS'it-spring'
p31
aS'hummel'
p32
aS'breguet'
p33
aVstolen
p34
aS'wilfred'
p35
aS'bow-belt'
p36
aS'bathing-suit-swimwear'
p37
aS'thvm'
p38
aS'18-karat-gold'
p39
aS'swimming-costume'
p40
aS'hunkydory'
p41
aS'stela'
p42
aVlook
p43
aS'onitsuka'
p44
aS'yachting'
p45
aVwooden
p46
aS'joe-sister'
p47
aVsatchel
p48
aS'wet-seal'
p49
aVboohoo
p50
aS'coventry'
p51
aVcrotch
p52
aS'new-balance'
p53
aS'pentagram'
p54
aVups
p55
aS'charter'
p56
aS'bell-sleeve'
p57
aS'miller'
p58
aS'nocona'
p59
aS'ankle-strap'
p60
aVlavender
p61
aS'millet'
p62
aVelegant
p63
aVrusty
p64
aS'rudman'
p65
aS'rodini'
p66
aS'boyfriendjeans'
p67
aVblouse
p68
aS'neo'
p69
aS'kartell'
p70
aS'unlisted'
p71
aS'panama'
p72
aS'monique-pan'
p73
aS'jaeger'
p74
aS'palm-tree'
p75
aS'steiner'
p76
aVfossil
p77
aS'double-wrap'
p78
aVnew
p79
aS'net'
p80
aS'rafaella'
p81
aS'scrunch-bikini'
p82
aVhero
p83
aVherm
p84
aS'avery'
p85
aS'mel'
p86
aS'hera'
p87
aVoverknee
p88
aS'jasmine'
p89
aS'mek'
p90
aS'chine'
p91
aS'kova'
p92
aS'mev'
p93
aS'nanny'
p94
aVchino
p95
aS'dori'
p96
aS'herv'
p97
aS'courteille'
p98
aS'sea-pearl'
p99
aVdry
p100
aVbuckled
p101
aS'sjp'
p102
aS'branquinho'
p103
aS'robin'
p104
aS'dri'
p105
aS'tortoiseshell'
p106
aS'fernandez'
p107
aS'racerback'
p108
aVclimber
p109
aS'keita'
p110
aVjoshua
p111
aS'golden'
p112
aS'christian-louboutin'
p113
aVheeled
p114
aS'santoni'
p115
aS'fantasie'
p116
aS'trollied'
p117
aS'unif'
p118
aS'screw-back'
p119
aVflatform
p120
aS'schraut'
p121
aS'moran'
p122
aS'thomas-sabo'
p123
aS'fornarina'
p124
aS'emporio-armani'
p125
aS'mid-knuckle'
p126
aVroffe
p127
aS'spoke'
p128
aS'geisha'
p129
aS'dnm'
p130
aS't-by-alexander-wang'
p131
aVtela
p132
aS'cali'
p133
aVhalogen
p134
aVmusic
p135
aS'card'
p136
aS'type'
p137
aS'rabbit-fur'
p138
aVcalf
p139
aS'arma'
p140
aS'cutoutdress'
p141
aS'relax'
p142
aS'raeburn'
p143
aS'oscar'
p144
aS'holt'
p145
aS'inverni'
p146
aS'onesleeve'
p147
aS'preciosa'
p148
aS'faceted'
p149
aS'99'
p150
aVglass
p151
aS'berlin'
p152
aS'reversible'
p153
aVrimless
p154
aS'adult'
p155
aVtying
p156
aS'eternally'
p157
aVhole
p158
aVware
p159
aS'tea-length'
p160
aS'flora'
p161
aS'wgaca'
p162
aS'judith-jack'
p163
aS'oleg'
p164
aVlocket
p165
aS'solitaire'
p166
aVflare
p167
aS'hansen'
p168
aVroot
p169
aS'steve-madden'
p170
aS'prabal-gurung'
p171
aS'honey'
p172
aS'titanium'
p173
aS'kudo'
p174
aS'ventcouvert'
p175
aS'piaget'
p176
aVrayon
p177
aS'ostrich'
p178
aS'victoria-secret'
p179
aS'olivia-burton'
p180
aS'button-down'
p181
aVtbar
p182
aVtravel
p183
aS'damage'
p184
aS'fraas'
p185
aVhot
p186
aS'longline'
p187
aS'hop'
p188
aS'dorothy-perkins'
p189
aVcheetah
p190
aS'freshwater-pearl'
p191
aS'rhodium-plated'
p192
aS'gordon'
p193
aS'beauty'
p194
aS'kosturova'
p195
aS'gaxotte'
p196
aS'tacori'
p197
aS'azagurypartridge'
p198
aS'blaque'
p199
aS'dolcis'
p200
aS'wristlet'
p201
aS'blackboots'
p202
aS'arm-cuff'
p203
aS'snood-scarf'
p204
aVsalina
p205
aS'kotur'
p206
aS'box-pleat'
p207
aS'royce'
p208
aS'sioux'
p209
aS'janis'
p210
aS'weekender'
p211
aS'glow-in-the-dark'
p212
aS'cat'
p213
aS'parosh'
p214
aS'amaya'
p215
aS'think'
p216
aS'tulip'
p217
aS'anniel'
p218
aS'winn'
p219
aS'fitzwell'
p220
aS'birman'
p221
aS'romper'
p222
aVwind
p223
aS'wine'
p224
aS'racer-back'
p225
aS'bompard'
p226
aVoneshoulder
p227
aS'gshock'
p228
aS'sabrina'
p229
aS'handcuff'
p230
aS'helene'
p231
aS'mabel'
p232
aS'stacked-heel'
p233
aS'heartloom'
p234
aS'fit'
p235
aS'backpack'
p236
aS'stevens'
p237
aS'viole'
p238
aVcrew
p239
aS'guilloche'
p240
aS'romeo'
p241
aS'dereon'
p242
aVcarve
p243
aS'crea'
p244
aVhidden
p245
aS'fin'
p246
aS'angel-wing'
p247
aS'34-sleeve'
p248
aS'basta'
p249
aS'ecko'
p250
aS'leiber'
p251
aS'slate'
p252
aS'ericdress'
p253
aS'grip-trainer'
p254
aS'dark-tinted'
p255
aVcaterpillar
p256
aS'therapy'
p257
aS'ernesto'
p258
aVvelcro
p259
aS'gianvitorossi'
p260
aVsilver
p261
aS'malouf'
p262
aS'bony'
p263
aS'giusti'
p264
aVfringed
p265
aS'mimco'
p266
aS'botkier'
p267
aS'barton'
p268
aS'lucy'
p269
aS'multi-color'
p270
aVmidfinger
p271
aS'mccall'
p272
aS'pleet'
p273
aS'aigle'
p274
aS'andrew'
p275
aVside
p276
aS'bantu'
p277
aS'dolce-vita'
p278
aS'exofficio'
p279
aS'arora'
p280
aS'chiffon'
p281
aS'qnigirls'
p282
aVgarment
p283
aS'luana'
p284
aS'hasbeens'
p285
aS'24k'
p286
aVnavy
p287
aS'dawn'
p288
aS'adjustable-strap'
p289
aS'decree'
p290
aS'neff'
p291
aS'velvet'
p292
aS'24karat-gold'
p293
aS'ariella'
p294
aVgradient
p295
aVrestricted
p296
aS'faberg'
p297
aS'brunello-cucinelli'
p298
aS'abramova'
p299
aS'mason'
p300
aS'rd'
p301
aS'sparkle'
p302
aVinhabit
p303
aS'tankini-swimsuit'
p304
aS'kristensen'
p305
aS'ciner'
p306
aVro
p307
aS'mandi'
p308
aS'rk'
p309
aVlinear
p310
aS'bouchra'
p311
aS'cortazar'
p312
aS'rabanne'
p313
aS'beston'
p314
aS'skort-skirt'
p315
aS'ramon'
p316
aS'hoodie'
p317
aS'druzy'
p318
aS'offtheshoulder'
p319
aVknit
p320
aS'harriet'
p321
aS'faliero-sarti'
p322
aS'speedo'
p323
aVbates
p324
aS'r2'
p325
aS'satine'
p326
aS'brgi'
p327
aS'chiara'
p328
aS'eberjey'
p329
aS'cosmic'
p330
aS'mcqueen'
p331
aS'ath'
p332
aS'sartore'
p333
aS'leila'
p334
aS'triumph'
p335
aS'signature'
p336
aS'thomaspaul'
p337
aS'5-pocket'
p338
aS'pink-sapphire'
p339
aS'stewart'
p340
aS'mademoiselle'
p341
aS'naughty'
p342
aS'nigel'
p343
aS'bambam'
p344
aVshopper
p345
aS'mickey-mouse'
p346
aVhoop
p347
aS'jack-will'
p348
aS'vieta'
p349
aS'herv-lger'
p350
aS'rieker'
p351
aS'hook'
p352
aS'chevron'
p353
aS'rebecchi'
p354
aS'pulsar'
p355
aS'hood'
p356
aS'lauren-ralph'
p357
aS'tanga'
p358
aS'coated-canvas'
p359
aVbasketball
p360
aS'mondani'
p361
aS'twisted'
p362
aS'heschung'
p363
aS'full-grain'
p364
aS'periwinkle'
p365
aS'james-perse'
p366
aS'vanina'
p367
aS'gilbert'
p368
aS'lip-jewelry'
p369
aS'under-armour'
p370
aVgeneva
p371
aS'ruthenium'
p372
aS'basler'
p373
aS'dacade'
p374
aS'half-sleeve'
p375
aS'below-the-knee'
p376
aS'modena'
p377
aS'helen'
p378
aS'iphone-case'
p379
aVstocking
p380
aVskimmer
p381
aS'samlavi'
p382
aS'faux-leather'
p383
aS'basha'
p384
aS'werewolf'
p385
aS'tree'
p386
aS'second'
p387
aVproject
p388
aS'mikimoto'
p389
aS'borgioni'
p390
aS'mermaid'
p391
aS'cruella'
p392
aS'goya'
p393
aS'este'
p394
aS'mink'
p395
aVhue
p396
aS'boston'
p397
aS'evil-eye'
p398
aVmind
p399
aS'mine'
p400
aS'shyla'
p401
aS'seed'
p402
aS'peacoat'
p403
aS'dr-dre'
p404
aS'drkshdw'
p405
aS'seek'
p406
aS'sottero'
p407
aS'gabriela'
p408
aS'bobi'
p409
aVarak
p410
aS'gabriele'
p411
aS'swildens'
p412
aVseethrough
p413
aS'soaked'
p414
aS'doori'
p415
aS'metallic'
p416
aS'justfabulous'
p417
aVsleeveless
p418
aS'vivienne-westwood-red-label'
p419
aS'kayu'
p420
aS'shining'
p421
aS'hatley'
p422
aVdavidson
p423
aS'corinna'
p424
aS'wommelsdorff'
p425
aS'button-fly'
p426
aS'abella'
p427
aVstirrup
p428
aVmystique
p429
aS'victoria'
p430
aS'mario'
p431
aS'koku'
p432
aVregular
p433
aS'heyman'
p434
aS'tapered-leg'
p435
aVletter
p436
aS'marie'
p437
aS'tyr'
p438
aS'maria'
p439
aS'singer'
p440
aS'episode'
p441
aS'maje'
p442
aS'marchesa'
p443
aS'camp'
p444
aS'kidston'
p445
aS'cami'
p446
aVcamo
p447
aVpointy
p448
aS'scotch'
p449
aVdot
p450
aVmarvel
p451
aS'fish-hook'
p452
aVselected
p453
aS'vicini'
p454
aVprin
p455
aS'heathered'
p456
aS'effy'
p457
aS'komodo'
p458
aS'padded'
p459
aS'katerina'
p460
aS'gauge'
p461
aS'poison'
p462
aS'ambre'
p463
aS'baby-studio'
p464
aS'fontanelli'
p465
aVlouise
p466
aS'folded'
p467
aVsugar
p468
aS'rihanna'
p469
aVcougar
p470
aS'blueandwhite'
p471
aS'bliss'
p472
aS'rich'
p473
aS'monica'
p474
aS'klein'
p475
aS'zipper-back'
p476
aS'stop'
p477
aS'pazolini'
p478
aS'coast'
p479
aS'pocket'
p480
aS'christopher'
p481
aVtungsten
p482
aS'rodkin'
p483
aS'cruciani'
p484
aS'kokon'
p485
aS'amrita-singh'
p486
aS'barlow'
p487
aVpatrizia
p488
aS'bat'
p489
aS'braza'
p490
aS'bar'
p491
aVavenger
p492
aS'tavecchi'
p493
aS'ileana-makri'
p494
aS'patch'
p495
aS'bag'
p496
aS'haydenharnett'
p497
aS'jayson'
p498
aS'ban'
p499
aS'bao'
p500
aS'elsa'
p501
aS'skechers'
p502
aS'light-pink'
p503
aS'pade'
p504
aVdisaster
p505
aS'lampert'
p506
aS'eskandar'
p507
aS'csengeri'
p508
aS'blee'
p509
aS'yoshi'
p510
aS'cleo'
p511
aS'open-toe'
p512
aS'best'
p513
aS'juliet'
p514
aVlancaster
p515
aS'01'
p516
aS'theyskens'
p517
aS'manson'
p518
aS'dungaree'
p519
aS'goldsign'
p520
aS'barse'
p521
aS'artificial'
p522
aVwetsuit
p523
aS'collette'
p524
aS'avelon'
p525
aVmelissa
p526
aVembroidery
p527
aViro
p528
aS'preville'
p529
aS'deserio'
p530
aS'codello'
p531
aS'hand-of'
p532
aS'caso'
p533
aS'henrik'
p534
aS'corset-style'
p535
aVrolled
p536
aS'jarlo'
p537
aS'vitamin'
p538
aS'cut'
p539
aS'papillio'
p540
aS'medallion'
p541
aS'iron-fist'
p542
aS'sperry'
p543
aS'waterman'
p544
aS'lord-taylor'
p545
aS'tablet'
p546
aVmet
p547
aVresistant
p548
aS'thin-belt'
p549
aS'fifth'
p550
aS'wire-wrapped'
p551
aS'bodysuit'
p552
aS'und'
p553
aS'14k-gold'
p554
aS'stone-skirting'
p555
aS'funtasma'
p556
aS'eastpak'
p557
aS'uno'
p558
aS'enzo'
p559
aS'kroell'
p560
aS'gwen'
p561
aS'leopardprint'
p562
aS'snakeskin'
p563
aS'2nd'
p564
aS'uttam'
p565
aS'zip-lock'
p566
aS'matta'
p567
aS'forever-21'
p568
aS'detachable-key'
p569
aVtint
p570
aS'angel'
p571
aVchrome
p572
aS'seashell'
p573
aS'mizuno'
p574
aS'chopard'
p575
aVthree
p576
aVting
p577
aVstrappy
p578
aS'peep-toe'
p579
aS'vionnet'
p580
aVmichele
p581
aS'riley'
p582
aS'schutz'
p583
aS'mco'
p584
aS'life'
p585
aS'mcl'
p586
aS'duster-coat'
p587
aS'littledoe'
p588
aS'rossignol'
p589
aS'onyx'
p590
aVnaya
p591
aS'pringle'
p592
aS'dave'
p593
aS'chuu'
p594
aS'child'
p595
aS'faux-suede'
p596
aS'highwaistedjeans'
p597
aS'ragandbone'
p598
aS'faonnable'
p599
aS'dessai'
p600
aS'tank'
p601
aS'danori'
p602
aVtaper
p603
aS'360'
p604
aVlizard
p605
aS'sli'
p606
aS'front-slit'
p607
aS'scalloped-hem'
p608
aS'gemvara'
p609
aS'armband'
p610
aVanchor
p611
aS'evening-wear'
p612
aVseven
p613
aS'cane'
p614
aS'asymmetrical-hem'
p615
aS'kloth'
p616
aS'croche'
p617
aS'sushi'
p618
aS'kohl'
p619
aS'malaika'
p620
aS'eighteen'
p621
aS'il'
p622
aS'mirabelle'
p623
aS'in'
p624
aS'gianni'
p625
aS'amour'
p626
aVmouse
p627
aS'id'
p628
aS'newbark'
p629
aS'tejido'
p630
aVplimsoll
p631
aS'belle'
p632
aS'make'
p633
aS'polaroid'
p634
aS'bella'
p635
aS'2-finger'
p636
aS'drawstring'
p637
aS'split'
p638
aS'elliott'
p639
aS'off-shoulder'
p640
aS'drawstring-waist'
p641
aS'charlotte-russe'
p642
aS'sandqvist'
p643
aS'boiled'
p644
aS'hosiery'
p645
aS'ella'
p646
aS'vivien'
p647
aS'josef'
p648
aS'peter-pilotto'
p649
aVelle
p650
aVkit
p651
aS'renaissance'
p652
aS'waterfall'
p653
aS'kim'
p654
aS'unicorn'
p655
aS'weinstock'
p656
aS'villegas'
p657
aS'floral-crown'
p658
aVkid
p659
aVbutter
p660
aS'altruette'
p661
aS'zeeland'
p662
aS'lucas'
p663
aS'smokey'
p664
aS'jumpsuit-romper'
p665
aS'whi'
p666
aS'realtree'
p667
aS'chantelle'
p668
aS'willhelm'
p669
aS'utzon'
p670
aS'smythson'
p671
aS'reese'
p672
aVpandora
p673
aS'call-it'
p674
aS'chan-luu'
p675
aS'voulez'
p676
aS'left'
p677
aS'filson'
p678
aS'yel'
p679
aS'just'
p680
aS'charlott'
p681
aS'cazabat'
p682
aS'tencel'
p683
aVsporting
p684
aVchristys
p685
aS'tolani'
p686
aS'metal-glass'
p687
aS'yamamoto'
p688
aS'yew'
p689
aS'nicolas'
p690
aS'carshoe'
p691
aS'ham'
p692
aS'sunflower'
p693
aS'phillips'
p694
aS'ranjana'
p695
aS'greylin'
p696
aVjeweler
p697
aS'macdonald'
p698
aS'thor'
p699
aS'chartreuse'
p700
aVduffel
p701
aS'jeweled'
p702
aS'east'
p703
aVhat
p704
aS'ravizza'
p705
aS'sbicca'
p706
aS'melissa-odabash'
p707
aS'osman'
p708
aS'vanessa'
p709
aVnorse
p710
aVequipmen
p711
aS'eugenia-kim'
p712
aS'javits'
p713
aS'nyla-star'
p714
aS'guinevere'
p715
aS'off-white'
p716
aS'spiga'
p717
aS'boyshort'
p718
aS'opi'
p719
aS'scotch-soda'
p720
aS'shoulder'
p721
aS'diopside'
p722
aS'articulated'
p723
aS'areaware'
p724
aVspecie
p725
aVnude
p726
aS'bozzi'
p727
aS'broumand'
p728
aS'alice'
p729
aS'niels'
p730
aS'sunahara'
p731
aS'round-neck'
p732
aS'lacroix'
p733
aS'kanupriya'
p734
aS'sebastian'
p735
aS'peasanttop'
p736
aVspitfire
p737
aS'moschino-cheap'
p738
aS'old'
p739
aS'creek'
p740
aS'people'
p741
aS'boyshorts'
p742
aS'crown'
p743
aS'dead'
p744
aS'pourtavoosi'
p745
aS'dear'
p746
aS'anello'
p747
aVruffled
p748
aVfor
p749
aS'bottom'
p750
aS'mbym'
p751
aS'fox'
p752
aS'yummie'
p753
aS'marcasite'
p754
aS'fog'
p755
aS'pantyhose'
p756
aS'veda'
p757
aS'catworld'
p758
aS'opening-ceremony'
p759
aS'wittner'
p760
aS'over-the-knee'
p761
aS'lambskin-leather'
p762
aS'alex-and-ani'
p763
aS'retrosuperfuture'
p764
aS'promod'
p765
aS'may28th'
p766
aVburn
p767
aS'icewatch'
p768
aS'culdesac'
p769
aS'yoke'
p770
aS'alexanderwang'
p771
aS'yoki'
p772
aVjoule
p773
aVsuper
p774
aVbamboo
p775
aS'chain-link'
p776
aS'tricot'
p777
aS'brahmin'
p778
aS'ruchedsleeve'
p779
aS'lynggaard'
p780
aS'idylle'
p781
aS'lapis'
p782
aS'bowler'
p783
aS'sequin'
p784
aS'moonbasa'
p785
aS'faircloth'
p786
aS'people-tree'
p787
aS'scunci'
p788
aS'inwear'
p789
aS'emilia'
p790
aVazura
p791
aS'emilie'
p792
aS'nixon'
p793
aS'ziba'
p794
aS'daus'
p795
aS'gauze'
p796
aS'rashguard'
p797
aS'pikolinos'
p798
aS'tinkerbell'
p799
aS'kakkar'
p800
aS'marshall'
p801
aS'som'
p802
aVsol
p803
aS'soo'
p804
aS'mocha'
p805
aS'hershesons'
p806
aS'army-green'
p807
aS'wrap'
p808
aS'luv-aj'
p809
aVorsay
p810
aS'uv-protection'
p811
aS'emerald-green'
p812
aS'initial'
p813
aVquote
p814
aS'joseph'
p815
aS'kenzie'
p816
aVburnou
p817
aS'paul-joe-sister'
p818
aS'jane'
p819
aS'panacea'
p820
aS'ginette'
p821
aS'waistcoat'
p822
aS'lowa'
p823
aS'delvaux'
p824
aS'olowu'
p825
aS'deep-v-neck'
p826
aS'loomstate'
p827
aS'derek-lam'
p828
aS'fahy'
p829
aS'gizia'
p830
aS'melanie'
p831
aS'verde'
p832
aS'diaper'
p833
aS'ziparound'
p834
aS'castaer'
p835
aVfingertip
p836
aS'christopher-kane'
p837
aVwhiskey
p838
aS'vanguard'
p839
aS'lwd'
p840
aVwellies
p841
aVzara
p842
aVpalm
p843
aS'garca'
p844
aS'spiked-heel'
p845
aS'azroul'
p846
aVsunpocket
p847
aS'jlindeberg'
p848
aS'minaj'
p849
aS'petit'
p850
aS'of-outsider'
p851
aS'shif'
p852
aS'headphone-earbuds'
p853
aS'everpretty'
p854
aVship
p855
aS'esteban'
p856
aS'acacia'
p857
aS'tatty-devine'
p858
aS'republiq'
p859
aS'floor'
p860
aS'ahnu'
p861
aS'zana'
p862
aS'republic'
p863
aS'rolf'
p864
aS'warehouse'
p865
aS'holly'
p866
aS'roll'
p867
aS'kendra-scott'
p868
aS'diez'
p869
aS'reed-jeweler'
p870
aS'garland'
p871
aS'meghan'
p872
aS'fabre'
p873
aS'felt'
p874
aS'taurus'
p875
aS'journee'
p876
aS'dansko'
p877
aS'crayo'
p878
aS'devon'
p879
aS'loree'
p880
aVrei
p881
aS'kitson'
p882
aS'hawkes'
p883
aS'adrianna'
p884
aS'loren'
p885
aS'jones'
p886
aS'frauenschuh'
p887
aS'98'
p888
aS'modalu'
p889
aS'm-missoni'
p890
aVfergie
p891
aS'jacket'
p892
aS'inc-international-concept'
p893
aS'time'
p894
aS'timo'
p895
aS'gown'
p896
aS'delman'
p897
aS'chain'
p898
aS'jules-smith'
p899
aS'skip'
p900
aVcobra
p901
aS'lucioli'
p902
aS'laura'
p903
aVcrocodile
p904
aS'skin'
p905
aVmill
p906
aS'soule'
p907
aS'tildon'
p908
aVballet
p909
aVuneven
p910
aS'ves'
p911
aS'burnout'
p912
aS'chilvers'
p913
aS'gladiatorsandals'
p914
aS'mackintosh'
p915
aVgranny
p916
aS'bernstock'
p917
aS'skirting'
p918
aS'lace-inset'
p919
aS'dragonfly'
p920
aS'smartphone'
p921
aS'string'
p922
aS'jezebel'
p923
aS'neil-barrett'
p924
aS'aigner'
p925
aS'kaliko'
p926
aS'choice'
p927
aS'love-moschino'
p928
aS'odescalchi'
p929
aVknapsack
p930
aS'gastone'
p931
aS'heel-pump'
p932
aS'marc-by-marc-jacob'
p933
aS'zucca'
p934
aS'neon-pink'
p935
aS'ollio'
p936
aS'tear'
p937
aS'coin-wallet'
p938
aVdia
p939
aS'minnie'
p940
aS'tumi'
p941
aS'of-god'
p942
aS'holliday'
p943
aS'the-north-face'
p944
aS'teal'
p945
aS'ml'
p946
aS'skort'
p947
aS'dip'
p948
aS'round'
p949
aS'scee'
p950
aS'isaac-mizrahi'
p951
aS'derby-hat'
p952
aS'villa'
p953
aS'radley'
p954
aS'minion'
p955
aS'harlow-1960'
p956
aS'fold-over'
p957
aS'anaconda'
p958
aS'anzie'
p959
aS'jamison'
p960
aS'ehrlich'
p961
aS'manetti'
p962
aS'roarke'
p963
aS'current'
p964
aVmeli
p965
aS'baggins'
p966
aVmelo
p967
aS'maconie'
p968
aS'international'
p969
aVmela
p970
aVfilled
p971
aS'woolen'
p972
aVdwarf
p973
aS'honour'
p974
aVmakeup
p975
aS'lange'
p976
aS'vanderbilt'
p977
aS'tailcoat'
p978
aVfownes
p979
aS'monies'
p980
aS'easton'
p981
aS'box'
p982
aS'marroni'
p983
aS'boat-neck'
p984
aS'anuschka'
p985
aS'bleulab'
p986
aS'brilliant'
p987
aS'chimento'
p988
aVbos
p989
aS'steffen'
p990
aS'bow'
p991
aS'pasquale'
p992
aS'weil'
p993
aVpinkface
p994
aS'mini-flare'
p995
aS'boa'
p996
aS'bob'
p997
aVnylon
p998
aS'old-navy'
p999
aS'boe'
p1000
aVbog
p1001
aS'lova'
p1002
aS'incotex'
p1003
aVadjustable
p1004
aS'charles-david'
p1005
aS'aidan'
p1006
aS'concept'
p1007
aS'therealreal'
p1008
aS'miharayasuhiro'
p1009
aVstiletto
p1010
aVfake
p1011
aS'mikal'
p1012
aS'lenox'
p1013
aS'ariel'
p1014
aS'nailpolish'
p1015
aVdangle
p1016
aS'lorenzi'
p1017
aVfrance
p1018
aS'charlier'
p1019
aS'aboveknuckle'
p1020
aS'adornia'
p1021
aS'bijules'
p1022
aS'krystal'
p1023
aS'gauthier'
p1024
aS'jeanpaul'
p1025
aS'saks'
p1026
aS'blackdress'
p1027
aS'vous'
p1028
aS'nadia'
p1029
aS'costagli'
p1030
aVunisex
p1031
aS'freestyle'
p1032
aS'crown-headband'
p1033
aS'pratesi'
p1034
aS'vero-moda'
p1035
aS'sierra'
p1036
aS'sue'
p1037
aS'virtue'
p1038
aS'schiaparelli'
p1039
aS'olive'
p1040
aS'bruuns'
p1041
aS'velour'
p1042
aS'fly'
p1043
aS'france-luxe'
p1044
aS'hechter'
p1045
aS'going-out'
p1046
aS'hair-band'
p1047
aS'spinelli'
p1048
aVmoccasin
p1049
aVsoul
p1050
aS'laurenza'
p1051
aS'wallet'
p1052
aS'mcq-by-alexander'
p1053
aS'phoebe'
p1054
aS'armhole'
p1055
aS'gladstone'
p1056
aS'portolano'
p1057
aS'kamik'
p1058
aVwant
p1059
aS'locke'
p1060
aS'stetson'
p1061
aS'tmls'
p1062
aS'pally'
p1063
aS'maleficent'
p1064
aS'disney-couture'
p1065
aS'dennis'
p1066
aS'stole'
p1067
aS'szeto'
p1068
aS'pink'
p1069
aS'nyx'
p1070
aVwinter
p1071
aS'bardot'
p1072
aS'tie-waist'
p1073
aS'antipodium'
p1074
aVsunday
p1075
aS'sword'
p1076
aS'elephant'
p1077
aS'bernini'
p1078
aS'alessi'
p1079
aS'coleman'
p1080
aS'repley'
p1081
aS'tila'
p1082
aS'a-line'
p1083
aVdesigner
p1084
aS'laundry'
p1085
aS'flexfit'
p1086
aS'penfield'
p1087
aS'may'
p1088
aS'max'
p1089
aVspor
p1090
aS'native-american'
p1091
aS'plaidshirt'
p1092
aS'148'
p1093
aVaccessory
p1094
aS'edie-parker'
p1095
aS'helmut'
p1096
aS'mac'
p1097
aS'zerner'
p1098
aS'mad'
p1099
aVscalloped
p1100
aS'cleobella'
p1101
aS'taya'
p1102
aS'headscarf'
p1103
aVaviator
p1104
aS'man'
p1105
aS'2b-bebe'
p1106
aS'fantasia'
p1107
aS'natural'
p1108
aVwaist
p1109
aS'johnson'
p1110
aS'avant'
p1111
aS'st'
p1112
aS'avani'
p1113
aS'mango'
p1114
aVtruck
p1115
aS'dolcini'
p1116
aS'african'
p1117
aS'basket'
p1118
aVtall
p1119
aS'vika'
p1120
aS'bow-accessory'
p1121
aS'etnies'
p1122
aS'biaki'
p1123
aVshield
p1124
aVlongsleeve
p1125
aS'rabbi'
p1126
aVpointed
p1127
aS'carvela-kurt'
p1128
aS'thomson'
p1129
aS'by-alexander-mcqueen'
p1130
aS'merino'
p1131
aS'nolita'
p1132
aS'hstern'
p1133
aVtula
p1134
aS'jig'
p1135
aS'satya'
p1136
aS'police'
p1137
aS'eye-glass'
p1138
aS'accordion'
p1139
aS'zoraide'
p1140
aVtorn
p1141
aS'swimsuit-swimwear'
p1142
aS'oakley'
p1143
aS'maid'
p1144
aS'lauren-ralph-lauren'
p1145
aS'mail'
p1146
aS'nettie'
p1147
aS'phillip-lim'
p1148
aS'apron'
p1149
aS'pointelle'
p1150
aS'kibur'
p1151
aS'tucker'
p1152
aS'quontum'
p1153
aS'mizuki'
p1154
aS'safari'
p1155
aVsmocked
p1156
aS'hot-pink'
p1157
aS'arcteryx'
p1158
aVopenback
p1159
aS'freya'
p1160
aS'travelon'
p1161
aS'ehsani'
p1162
aS'river-island'
p1163
aVpeasant
p1164
aS'fisherman'
p1165
aS'horsebit'
p1166
aVquarter
p1167
aS'cazal'
p1168
aS'lucca'
p1169
aS'daftbird'
p1170
aS'flower-crown'
p1171
aS'turtle'
p1172
aVsquare
p1173
aS'fluted'
p1174
aVlycra
p1175
aS'tutu'
p1176
aS'underwire-bra'
p1177
aS'eddera'
p1178
aS'inbar'
p1179
aS'girl'
p1180
aS'two-piece'
p1181
aS'homme'
p1182
aS'living'
p1183
aVcanvas
p1184
aS'elsa-peretti'
p1185
aS'jackson'
p1186
aS'stitch'
p1187
aS'white-house-black-market'
p1188
aS'blu'
p1189
aVviscose
p1190
aVpointytoe
p1191
aS'julia'
p1192
aS'blk'
p1193
aS'dutch'
p1194
aS'acetate-glass'
p1195
aS'dulong'
p1196
aS'goti'
p1197
aS'monster'
p1198
aS'rodenstock'
p1199
aS'sheffield'
p1200
aS'jeanne'
p1201
aS'romano'
p1202
aVfuschia
p1203
aS'body-suit'
p1204
aVscrunch
p1205
aVvinyl
p1206
aS'longines'
p1207
aS'mimi'
p1208
aVheadband
p1209
aVmonogrammed
p1210
aVtraining
p1211
aVgunmetal
p1212
aS'cacharel'
p1213
aS'basso'
p1214
aS'parka'
p1215
aS'allover-print'
p1216
aS'minidress'
p1217
aVthing
p1218
aS'footwear'
p1219
aS'raey'
p1220
aS'first'
p1221
aS'suspender'
p1222
aS'mishka'
p1223
aS'seychelles'
p1224
aS'hulme'
p1225
aS'rachel'
p1226
aS'potter'
p1227
aS'high-heel'
p1228
aS'one'
p1229
aS'grosgrain'
p1230
aS'salsa'
p1231
aS'joy-manning'
p1232
aS'open'
p1233
aS'vivienne-westwood-anglomania'
p1234
aS'seersucker'
p1235
aS'vermeil'
p1236
aS'little'
p1237
aS'vera-bradley'
p1238
aS'larios'
p1239
aS'triple-crown'
p1240
aS'structured'
p1241
aS'morato'
p1242
aS'bita'
p1243
aS'bettye'
p1244
aS'afends'
p1245
aS'ribeiro'
p1246
aS'williams'
p1247
aS'hammitt'
p1248
aS'starfish'
p1249
aS'floppy'
p1250
aS'vivienne-westwood'
p1251
aS'shawl'
p1252
aS'kagan'
p1253
aS'padding'
p1254
aS'carmakoma'
p1255
aS'zadeh'
p1256
aS'bcbgmaxazria'
p1257
aS'palm-glove'
p1258
aS'colette'
p1259
aS'rosena'
p1260
aVboyfriend
p1261
aS'tecnica'
p1262
aS'lugz'
p1263
aS'la-mer'
p1264
aS'iceberg'
p1265
aS'plein'
p1266
aVfluorescen
p1267
aS'18'
p1268
aVfolly
p1269
aS'browning'
p1270
aS'side-tie-bikini'
p1271
aS'laptop-bag'
p1272
aS'bauer'
p1273
aS'one-shoulder'
p1274
aS'sophie'
p1275
aS'folli'
p1276
aS'cartell'
p1277
aS'sophia'
p1278
aS'sak'
p1279
aS'cuir'
p1280
aVcoconut
p1281
aS'sam'
p1282
aS'ingelmo'
p1283
aS'preston'
p1284
aS'fabio'
p1285
aVstubbs
p1286
aS'dash'
p1287
aS'kevia'
p1288
aS'plunge'
p1289
aS'adele'
p1290
aVpastry
p1291
aS'bone-corset'
p1292
aS'eudon'
p1293
aS'monochrome'
p1294
aS'marbella'
p1295
aS'cassandra'
p1296
aVhooded
p1297
aS'zoe'
p1298
aVelyssa
p1299
aS'emilio-pucci'
p1300
aS'collezio'
p1301
aS'illustrated-people'
p1302
aVnote
p1303
aS'heel-stiletto'
p1304
aS'goodman'
p1305
aS'checkerboard'
p1306
aS'atos'
p1307
aS'bailey'
p1308
aVdestroy
p1309
aS'cartier'
p1310
aS'cluny'
p1311
aS'charcoal-gray'
p1312
aS'varvatos'
p1313
aS'butterfly'
p1314
aS'straightening'
p1315
aS'verona'
p1316
aS'track'
p1317
aS'friedman'
p1318
aS'ruffo'
p1319
aS'bordelle'
p1320
aS'zigzag'
p1321
aS'double-zip'
p1322
aS'bacconi'
p1323
aS'in4mation'
p1324
aS'nolan'
p1325
aVprinted
p1326
aVsunglass
p1327
aVcrochet
p1328
aS'pair'
p1329
aVknee
p1330
aVtracy
p1331
aVbeth
p1332
aS'ngerie'
p1333
aS'everlast'
p1334
aS'lerner'
p1335
aVenamel
p1336
aS'lenny'
p1337
aS'arche'
p1338
aS'chipie'
p1339
aVtrotter
p1340
aS'trifari'
p1341
aS'leatherock'
p1342
aVcushioned
p1343
aS'batik'
p1344
aVcarvela
p1345
aS'chiang'
p1346
aS'lydia'
p1347
aVsalt
p1348
aS'sarong-swimwear'
p1349
aS'shop'
p1350
aS'sport-activewear'
p1351
aS'madison'
p1352
aS'murrina'
p1353
aS'leets'
p1354
aS'surplus'
p1355
aS'accessorize'
p1356
aS'show'
p1357
aS'lotus'
p1358
aS'multi-strand'
p1359
aVbright
p1360
aVshoe
p1361
aS'crane'
p1362
aS'san-diego-hat-co'
p1363
aS'melchior'
p1364
aS'lauder'
p1365
aS'talula'
p1366
aS'plume'
p1367
aVdeck
p1368
aS'cheeseburger'
p1369
aS'cloak'
p1370
aS'dico'
p1371
aS'otis'
p1372
aS'elemen'
p1373
aVblack
p1374
aS'raglan'
p1375
aS'harvey'
p1376
aS'robe'
p1377
aS'caroline'
p1378
aS'carolina'
p1379
aS'j-crew'
p1380
aS'moreau'
p1381
aS'aamaya-by-priyanka'
p1382
aS'get'
p1383
aS'deha'
p1384
aS'side-zip'
p1385
aS'trilby-hat'
p1386
aS'hardy'
p1387
aVhailey
p1388
aS'michael-michael'
p1389
aS'nearly'
p1390
aS'gee'
p1391
aS'yvonne'
p1392
aVmunt
p1393
aS'boat-neckline'
p1394
aS'geo'
p1395
aS'gem'
p1396
aS'michael-kor'
p1397
aS'red-carpet'
p1398
aS'comme-de-garons'
p1399
aS'prima'
p1400
aS'skull'
p1401
aS'roger'
p1402
aVpima
p1403
aVsnapback
p1404
aS'vision'
p1405
aS'rockport'
p1406
aVpeony
p1407
aS'kerchief-headband'
p1408
aS'meltinpot'
p1409
aS'pellini'
p1410
aS'annina'
p1411
aS'isabel'
p1412
aVtwotone
p1413
aS'carhartt'
p1414
aS'role-play'
p1415
aS'seam'
p1416
aS'pebble'
p1417
aS'corsage'
p1418
aS'wonder'
p1419
aVpuma
p1420
aS'swim-bikini-bottom'
p1421
aS'rado'
p1422
aS'kawakita'
p1423
aS'tiger-eye'
p1424
aS'label'
p1425
aS'sermoneta'
p1426
aVpump
p1427
aS'gaga'
p1428
aS'crossbody-handbag'
p1429
aS'ju'
p1430
aS'geometric'
p1431
aVreading
p1432
aS'dark-brown'
p1433
aS'oversized'
p1434
aS'jumper'
p1435
aVtux
p1436
aVcheckered
p1437
aS'lancme'
p1438
aS'rrl'
p1439
aS'doma'
p1440
aVscreen
p1441
aVfaded
p1442
aS'dome'
p1443
aS'punto'
p1444
aS'medeiros'
p1445
aS'clayton'
p1446
aS'sylva'
p1447
aS'tuk'
p1448
aVjj
p1449
aS'mariette'
p1450
aS'ax-paris'
p1451
aVspeechless
p1452
aS'jb'
p1453
aS'jc'
p1454
aS'guardiani'
p1455
aS'aventurine'
p1456
aS'rhodes'
p1457
aVtrader
p1458
aS'georgette'
p1459
aS'multicolor'
p1460
aS'jo'
p1461
aS'deep-v'
p1462
aVexpression
p1463
aS'betsey-johnson'
p1464
aS'spana'
p1465
aS'bershka'
p1466
aS'donoghue'
p1467
aS'catbird'
p1468
aS'baseball-cap'
p1469
aS'twis'
p1470
aS'twin'
p1471
aS'melissa-joy-manning'
p1472
aS'eddie-borgo'
p1473
aS'twig'
p1474
aS'erdem'
p1475
aS'spanx'
p1476
aS'vivobarefoot'
p1477
aS'byblos'
p1478
aS'carine'
p1479
aS'comb'
p1480
aS'mara'
p1481
aS'peace-sign'
p1482
aVteddy
p1483
aS'stretch'
p1484
aS'west'
p1485
aS'layer'
p1486
aVmark
p1487
aVpleaser
p1488
aS'acra'
p1489
aS'tinley'
p1490
aS'tenza'
p1491
aS'crawford'
p1492
aS'mary'
p1493
aS'wesc'
p1494
aS'lela-rose'
p1495
aS'fade'
p1496
aS'flower-pattern'
p1497
aS'benoit'
p1498
aVthousand
p1499
aS'lacey-ryan'
p1500
aS'fellini'
p1501
aS'turtleneck'
p1502
aS'lobster-clasp'
p1503
aS'bmw'
p1504
aS'deron'
p1505
aS'berluti'
p1506
aS'vaccarello'
p1507
aS'mugler'
p1508
aS'biagiotti'
p1509
aVjute
p1510
aS'kolor'
p1511
aS'polly'
p1512
aS'blowfish'
p1513
aS'isabella'
p1514
aVstacked
p1515
aS'reebok'
p1516
aS'zippered'
p1517
aS'piguet'
p1518
aVstacker
p1519
aS'collarless'
p1520
aS'ruched'
p1521
aS'leathersleeve'
p1522
aS'antony'
p1523
aS'novella'
p1524
aVbop
p1525
aS'ilaria'
p1526
aS'theo'
p1527
aS'riot'
p1528
aS'iva'
p1529
aS'pinko'
p1530
aS'ctrl'
p1531
aS'openknit'
p1532
aS'shoulder-strap'
p1533
aS'purse'
p1534
aS'bros'
p1535
aS'destin'
p1536
aS'pinky'
p1537
aVcluster
p1538
aS'tahitian-pearl'
p1539
aS'jenny'
p1540
aS'fama'
p1541
aS'ivy'
p1542
aS'beene'
p1543
aS'pjk'
p1544
aS'lavi'
p1545
aS'doctor'
p1546
aS'pomellato'
p1547
aS'commando'
p1548
aS'tous'
p1549
aS'pad'
p1550
aS'otto'
p1551
aS'vigoss'
p1552
aS'pak'
p1553
aS'otte'
p1554
aVporter
p1555
aS'phase-eight'
p1556
aS'musulin'
p1557
aS'billabong'
p1558
aS'karolina'
p1559
aS'lapointe'
p1560
aS'arden'
p1561
aS'harris'
p1562
aVwired
p1563
aVlemon
p1564
aS'weave'
p1565
aS'pacini'
p1566
aS'costa'
p1567
aS'peach'
p1568
aS'blu-bijou'
p1569
aS'jendi'
p1570
aS'vandevorst'
p1571
aS'sideways'
p1572
aVwellington
p1573
aS'aspiga'
p1574
aS'coverups'
p1575
aS'pewter'
p1576
aVclearheel
p1577
aS'trasparenze'
p1578
aS'cordani'
p1579
aS'lucky-brand'
p1580
aS'monet'
p1581
aS'babolat'
p1582
aS'spaghetti-strap'
p1583
aVhades
p1584
aVbabydoll
p1585
aS'tourmaline'
p1586
aS'man-made'
p1587
aVgabardine
p1588
aS'lulu-guinness'
p1589
aS'segal'
p1590
aS'dipped'
p1591
aS'mcdonald'
p1592
aS'dieppa'
p1593
aS'asos'
p1594
aS'esprit'
p1595
aVbrogue
p1596
aVdicky
p1597
aS'carrini'
p1598
aS'kastan'
p1599
aS'ellen'
p1600
aVgrip
p1601
aS'khirma'
p1602
aVaround
p1603
aS'batwing-sleeve'
p1604
aS'tamaris'
p1605
aS'shakuhachi'
p1606
aS'zephyr'
p1607
aVmou
p1608
aS'dark'
p1609
aS'pikapika'
p1610
aS'moi'
p1611
aS'simmons'
p1612
aS'traffic'
p1613
aS'bandage'
p1614
aS'mondrina'
p1615
aS'world'
p1616
aS'dara'
p1617
aS'sykes'
p1618
aVdare
p1619
aS'mod'
p1620
aS'polka-dot'
p1621
aS'nanette'
p1622
aVespadrille
p1623
aS'thorpe'
p1624
aS'rachael'
p1625
aS'bat-sleeve'
p1626
aS'clay'
p1627
aVbeverly
p1628
aS'claw'
p1629
aS'adami'
p1630
aS'heather-grey'
p1631
aVsneaker
p1632
aS'cabi'
p1633
aS'turtle-neck'
p1634
aS'doll'
p1635
aS'golden-bangle'
p1636
aS'delfina'
p1637
aS'adigirl'
p1638
aS'cabochon'
p1639
aS'rosamosario'
p1640
aS'open-heart'
p1641
aS'joan'
p1642
aS'sevan'
p1643
aS'gross'
p1644
aVwristband
p1645
aVtote
p1646
aS'channel'
p1647
aS'napapijri'
p1648
aS'tube'
p1649
aS'vicenza'
p1650
aS'seaman'
p1651
aS'kismet'
p1652
aVellie
p1653
aS'toledano'
p1654
aVmosley
p1655
aS'castelbajac'
p1656
aS'knife'
p1657
aS'kieselsteincord'
p1658
aS'matte-gold'
p1659
aS'velden'
p1660
aVintimate
p1661
aVdasein
p1662
aS'tory-burch'
p1663
aS'blanknyc'
p1664
aS'flip-up'
p1665
aVoliver
p1666
aS'lalucca'
p1667
aS'jane-norman'
p1668
aS'zimmermann'
p1669
aS'josie'
p1670
aVfleecelined
p1671
aS'stone'
p1672
aS'ruddick'
p1673
aS'ace'
p1674
aS'mountainsmith'
p1675
aVroar
p1676
aS'island'
p1677
aVindustry
p1678
aS'marc'
p1679
aS'fishtail'
p1680
aS'newsboy'
p1681
aS'yurkievich'
p1682
aS'demonia'
p1683
aS'feit'
p1684
aS'paciotti'
p1685
aS'mixed'
p1686
aS'alishad'
p1687
aS'luck'
p1688
aVmatisse
p1689
aS'road'
p1690
aS'osklen'
p1691
aVcurling
p1692
aS'grafea'
p1693
aS'image'
p1694
aS'kate-spade'
p1695
aS'blessed'
p1696
aS'geib'
p1697
aS'cowhide'
p1698
aVharness
p1699
aS'wilde'
p1700
aS'jasper'
p1701
aS'dreaming'
p1702
aS'gomez'
p1703
aS'hidalgo'
p1704
aS'goliath'
p1705
aS'galitzine'
p1706
aS'her'
p1707
aS'trapeze'
p1708
aS'jigsaw'
p1709
aVstyling
p1710
aS'decode'
p1711
aS'workshop'
p1712
aS'italia'
p1713
aS'brazilian'
p1714
aS'hem'
p1715
aS'bubble'
p1716
aS'shelli'
p1717
aS'cold-shoulder'
p1718
aS'oysho'
p1719
aS'hacienda'
p1720
aS'treacy'
p1721
aS'spider'
p1722
aS'corso'
p1723
aS'amsale'
p1724
aS'laing'
p1725
aS'malababa'
p1726
aS'corse'
p1727
aS'havaianas'
p1728
aS'with'
p1729
aS'adler'
p1730
aVassn
p1731
aS'pearl-cluster'
p1732
aS'marni'
p1733
aS'one-teaspoon'
p1734
aS'annsofie'
p1735
aS'bow-tie'
p1736
aS'furla'
p1737
aS'dirty'
p1738
aVnetting
p1739
aS'buffalo-plaid'
p1740
aS'manuel'
p1741
aS'tripp'
p1742
aVglenda
p1743
aS'multi-pocket'
p1744
aVjohnny
p1745
aS'af'
p1746
aS'mundi'
p1747
aS'ak'
p1748
aS'bedstu'
p1749
aS'deer'
p1750
aVacetate
p1751
aS'water-resistant'
p1752
aVas
p1753
aS'ar'
p1754
aS'au'
p1755
aS'carved'
p1756
aS'av'
p1757
aVgirlfriend
p1758
aS'lifetime'
p1759
aS'plinio'
p1760
aS'eliot'
p1761
aS'cream'
p1762
aS'novick'
p1763
aS'novica'
p1764
aS'bandana'
p1765
aVfootless
p1766
aVhybrid
p1767
aS'waxing'
p1768
aVmidheel
p1769
aVtight
p1770
aS'collis'
p1771
aS'dogeared'
p1772
aS'indah'
p1773
aS'fox-fur'
p1774
aS'lapel'
p1775
aS'grenoble'
p1776
aS'terre'
p1777
aS'miriam'
p1778
aS'luca'
p1779
aS'parkhurst'
p1780
aS'brandy'
p1781
aS'a2'
p1782
aS'napier'
p1783
aS'terry'
p1784
aS'chris'
p1785
aVdecorated
p1786
aS'rokoko'
p1787
aS'leombruni'
p1788
aS'tear-drop'
p1789
aS'natalie'
p1790
aS'rachel-zoe'
p1791
aS'natalia'
p1792
aS'shark-tooth'
p1793
aS'doublebreasted'
p1794
aS'dyed'
p1795
aS'raphael'
p1796
aS'adam'
p1797
aVdeluxe
p1798
aS'original'
p1799
aVfrends
p1800
aS'gingham'
p1801
aVforget
p1802
aS'ceramic'
p1803
aS'leopard-print'
p1804
aS'sinequanone'
p1805
aS'emili'
p1806
aS'suno'
p1807
aS'cooperative'
p1808
aS'nicce'
p1809
aS'gradient-lens'
p1810
aS'liam'
p1811
aS'mng'
p1812
aS'kaufmanfranco'
p1813
aS'tt'
p1814
aS'tu'
p1815
aS'trixie'
p1816
aS'bassike'
p1817
aS'to'
p1818
aS'tail'
p1819
aS'daniel'
p1820
aS'toe-thong'
p1821
aS'conair'
p1822
aS'ti'
p1823
aVcrimson
p1824
aS'panky'
p1825
aS'jeggings-legging'
p1826
aS'del-toro'
p1827
aS'ta'
p1828
aS'premium'
p1829
aS'marysia'
p1830
aS'buchman'
p1831
aS'sky-blue'
p1832
aS'puffy'
p1833
aS'shaun-leane'
p1834
aS'breil'
p1835
aS'ficalora'
p1836
aS'samse'
p1837
aS'wolford'
p1838
aS'bocage'
p1839
aS'elena'
p1840
aS'cobalt'
p1841
aS'mando'
p1842
aS'strand'
p1843
aS'gongini'
p1844
aS'jeffrey-campbell'
p1845
aS'elise-dray'
p1846
aS'cable'
p1847
aS'rick-owen-lily'
p1848
aS'patent-leather'
p1849
aS'celebrity'
p1850
aS'bucco'
p1851
aS'wide-brim'
p1852
aS'maticevski'
p1853
aS'sand'
p1854
aS'bulova'
p1855
aS'harry'
p1856
aS'small'
p1857
aS'balmain'
p1858
aS'saako'
p1859
aS'kiel'
p1860
aVtribal
p1861
aS'bcbgirls'
p1862
aVasscher
p1863
aS'schiesser'
p1864
aVgrasshopper
p1865
aS'ritter'
p1866
aS'cash'
p1867
aS'modal'
p1868
aS'zero'
p1869
aS'slip-on'
p1870
aS'liz-claiborne'
p1871
aS'cornelia'
p1872
aVribbon
p1873
aVhick
p1874
aVdial
p1875
aVorangers
p1876
aS'richard'
p1877
aS'karen-millen'
p1878
aS'almond-toe'
p1879
aS'vertical-stripe'
p1880
aS'babajaan'
p1881
aS'ladakh'
p1882
aVtasha
p1883
aS'chamilia'
p1884
aS'munder'
p1885
aS'nurse'
p1886
aVplush
p1887
aS'contrast'
p1888
aVmovement
p1889
aS'full'
p1890
aVjefferies
p1891
aS'bowtie'
p1892
aS'tie-bikini-bottom'
p1893
aVmule
p1894
aS'mint-green'
p1895
aS'jonas'
p1896
aS'fiorentini'
p1897
aS'v-neck'
p1898
aS'legend'
p1899
aS'persy'
p1900
aS'wool-blend'
p1901
aS'tortoise'
p1902
aS'maxmara'
p1903
aS'mattox'
p1904
aS'transparente'
p1905
aS'14-karat-gold'
p1906
aS'tamara-mellon'
p1907
aS'stella'
p1908
aS'atelier'
p1909
aS'patou'
p1910
aS'schumacher'
p1911
aS'pice'
p1912
aVnarrow
p1913
aS'brimmed'
p1914
aVwhimsical
p1915
aS'vic'
p1916
aVcaptoe
p1917
aS'via'
p1918
aS'pleione'
p1919
aS'adidas'
p1920
aVvie
p1921
aS'fohrman'
p1922
aS'elgin'
p1923
aS'vil'
p1924
aS'chaus'
p1925
aS'vir'
p1926
aS'jill-stuart'
p1927
aS'corto'
p1928
aS'vix'
p1929
aS'mock-neck'
p1930
aS'mistress'
p1931
aS'select'
p1932
aS'loeffler-randall'
p1933
aVwanted
p1934
aS'eye'
p1935
aS'sophie-hulme'
p1936
aS'levine'
p1937
aS'rafe'
p1938
aS'ugg-australia'
p1939
aS'two'
p1940
aS'lug-sole'
p1941
aS'pearl'
p1942
aS'malene-birger'
p1943
aVmorn
p1944
aS'sassoon'
p1945
aS'hinfray'
p1946
aS'albertus'
p1947
aVstretchy
p1948
aS'sugarlips'
p1949
aS'diamond'
p1950
aS'halo-diamond'
p1951
aS'ramona'
p1952
aS'nimbus'
p1953
aS'company'
p1954
aVsaggy
p1955
aS'koma'
p1956
aS'junghans'
p1957
aS'kller'
p1958
aS'avoca'
p1959
aS'hublot'
p1960
aS'fleece'
p1961
aS'kaminski'
p1962
aS'georgina'
p1963
aS'gypset'
p1964
aS'olsenboye'
p1965
aS'sacai'
p1966
aS'indulgems'
p1967
aS'ermilio'
p1968
aS'malo'
p1969
aS'belgo'
p1970
aS'del'
p1971
aVmorgan
p1972
aS'bordertop'
p1973
aS'marble'
p1974
aS'barclay'
p1975
aS'ribcage'
p1976
aS'allegra'
p1977
aS'sixtyseven'
p1978
aS'multiway'
p1979
aVponte
p1980
aS'rodriguez'
p1981
aS'allegri'
p1982
aS'steffe'
p1983
aS'zip-front'
p1984
aVhijab
p1985
aS'schoolgirl'
p1986
aS'sharp'
p1987
aS'jaggar'
p1988
aS'sensi'
p1989
aVdress
p1990
aS'senso'
p1991
aS'tapestry'
p1992
aS'low-rise'
p1993
aVsiren
p1994
aS'chiarini'
p1995
aS'hugo'
p1996
aS'hugh'
p1997
aS'browne'
p1998
aS'zigigirl'
p1999
aS'kokin'
p2000
aS'reyes'
p2001
aS'ryu'
p2002
aVcreature
p2003
aS'bke'
p2004
aS'underwear-panty'
p2005
aS'frilly'
p2006
aVpetite
p2007
aS'perrin'
p2008
aS'polartec'
p2009
aVperforated
p2010
aS'charma'
p2011
aS'hockley'
p2012
aS'hair-tie'
p2013
aVauthentic
p2014
aS'flutter'
p2015
aVcoat
p2016
aS'davek'
p2017
aS'spoon'
p2018
aVcoas
p2019
aS'judith-leiber'
p2020
aVcoal
p2021
aS'flurt'
p2022
aS'diradourian'
p2023
aVrounded
p2024
aS'drusy'
p2025
aVpant
p2026
aVwinged
p2027
aVpepe
p2028
aS'of-harlow'
p2029
aS'wester'
p2030
aS'samra'
p2031
aS'scott'
p2032
aS'sole-society'
p2033
aS'anni-jrgenson'
p2034
aVlaced
p2035
aS'navajo'
p2036
aV20
p2037
aS'21'
p2038
aS'bangle'
p2039
aS'schiavoni'
p2040
aS'ritani'
p2041
aS'dolly'
p2042
aS'ab-by-allen-schwartz'
p2043
aS'rubber-sole'
p2044
aS'isaac'
p2045
aS'ariat'
p2046
aS'etienne'
p2047
aS'ally'
p2048
aVgood
p2049
aVtoiletry
p2050
aVjeepers
p2051
aVharrod
p2052
aS'seventh'
p2053
aS'repetto'
p2054
aS'olivia'
p2055
aS'iridescent'
p2056
aS'oxford'
p2057
aS'ancarani'
p2058
aS'felmini'
p2059
aVwash
p2060
aS'invicta'
p2061
aS'cargo-pant'
p2062
aVosiris
p2063
aVdrake
p2064
aS'swimsuit'
p2065
aVmicro
p2066
aS'piping'
p2067
aVmonsoon
p2068
aS'found'
p2069
aS'rib-cage'
p2070
aS'sas-bide'
p2071
aS'jacquard'
p2072
aS'callum'
p2073
aS'tuleste'
p2074
aS'house'
p2075
aVfish
p2076
aS'dresscamp'
p2077
aS'idea'
p2078
aS'jjill'
p2079
aS'stringer'
p2080
aS'hive'
p2081
aS'monki'
p2082
aS'ripple'
p2083
aVcomic
p2084
aS'bihan'
p2085
aVshor
p2086
aS'perry'
p2087
aS'cdric'
p2088
aS'lipstick'
p2089
aS'claires'
p2090
aS'electronic'
p2091
aS'pring'
p2092
aS'rocawear'
p2093
aS'ingall'
p2094
aS'tokidoki'
p2095
aS'print'
p2096
aS'meira'
p2097
aS'coralia'
p2098
aS'satin'
p2099
aS'chambray'
p2100
aVoutfitter
p2101
aS'sarong'
p2102
aS'scho'
p2103
aS'porcelain'
p2104
aS'frette'
p2105
aS'ksubi'
p2106
aVloafer
p2107
aVrated
p2108
aS'kamali'
p2109
aVacorn
p2110
aS'birding'
p2111
aS'cocobelle'
p2112
aS'lemaire'
p2113
aS'pliner'
p2114
aS'ziio'
p2115
aS'tribal-print'
p2116
aS'panama-hat'
p2117
aS'goorin'
p2118
aS'jovonna'
p2119
aS'mcq-by-alexander-mcqueen'
p2120
aS'diba'
p2121
aVcastle
p2122
aS'elbow-sleeve'
p2123
aS'copper'
p2124
aS'reversing'
p2125
aS'emerald-cut'
p2126
aS'valentino'
p2127
aVcelet
p2128
aS'fedora'
p2129
aS'netted'
p2130
aS'salvatore-ferragamo'
p2131
aVslipper
p2132
aS'kobo'
p2133
aS'delfina-delettrez'
p2134
aS'bisonte'
p2135
aS'claudie'
p2136
aS'clear-crystal'
p2137
aVglitter
p2138
aS'garvida'
p2139
aS'guess'
p2140
aS'mattiolo'
p2141
aVjet
p2142
aS'kon'
p2143
aVtwenty
p2144
aS'5th'
p2145
aS'tata'
p2146
aS'marchon'
p2147
aS'leighton'
p2148
aVcastaner
p2149
aVopentoe
p2150
aS'saint'
p2151
aVretrostyle
p2152
aS'poupette'
p2153
aVkor
p2154
aS'jen'
p2155
aS'aiche'
p2156
aS'heuer'
p2157
aS'too'
p2158
aS'limedrop'
p2159
aS'stephen-webster'
p2160
aS'sogoli'
p2161
aS'park'
p2162
aS'drapey'
p2163
aS'swim-suit'
p2164
aS'draped'
p2165
aS'vernier'
p2166
aS'lauren-moshi'
p2167
aS'v73'
p2168
aS'crown-tiara'
p2169
aS'grace'
p2170
aS'peaked'
p2171
aVpolarized
p2172
aS'frock'
p2173
aS'odi'
p2174
aS'18k'
p2175
aVfilum
p2176
aS'freud'
p2177
aVtummy
p2178
aS'french-connection'
p2179
aS'two-tone'
p2180
aS'grenson'
p2181
aS'pashma'
p2182
aVgottex
p2183
aS'bagatt'
p2184
aS'minimarket'
p2185
aS'field-jacket'
p2186
aS'giuseppe-zanotti'
p2187
aS'sand-shoe'
p2188
aS'reinhard'
p2189
aS'graffiti'
p2190
aS'balcony-bra'
p2191
aVcreased
p2192
aS'windbreaker'
p2193
aS'diemme'
p2194
aVballerina
p2195
aS'cardigan'
p2196
aS'flared'
p2197
aS'kd2024'
p2198
aS'pom'
p2199
aS'blanca'
p2200
aS'stephen-dweck'
p2201
aS'croc'
p2202
aVtech
p2203
aS'becca'
p2204
aS'mackage'
p2205
aS'l-erickson'
p2206
aS'ripka'
p2207
aVplay
p2208
aS'patterson'
p2209
aS'bodell'
p2210
aVhommerson
p2211
aS'2-tone'
p2212
aS'darth'
p2213
aS'reed-krakoff'
p2214
aS'singlet'
p2215
aS'charm'
p2216
aS'moss'
p2217
aS'genie'
p2218
aVchap
p2219
aS'ronny'
p2220
aVkc
p2221
aS'ka'
p2222
aS'yazbukey'
p2223
aS'incase'
p2224
aS'sweat-pant'
p2225
aS'maier'
p2226
aS'kick-pleat'
p2227
aS'mary-jane'
p2228
aS'clements'
p2229
aS'gvgv'
p2230
aS'marvin'
p2231
aS'nessa'
p2232
aVbandeau
p2233
aS'thomas'
p2234
aS'gola'
p2235
aS'ugo'
p2236
aS'gold'
p2237
aS'sparrow'
p2238
aS'loiselle'
p2239
aS'gim'
p2240
aS'hugging'
p2241
aS'hillside'
p2242
aS'vader'
p2243
aS'ferrone'
p2244
aS'stainless-steel'
p2245
aS'murati'
p2246
aS'finn'
p2247
aS'switchblade'
p2248
aS'frankie'
p2249
aS'baby-doll'
p2250
aS'iradj'
p2251
aS'failey'
p2252
aS'karl-lagerfeld'
p2253
aS'wayne'
p2254
aS'cassette'
p2255
aS'ashiana'
p2256
aS'rosemunde'
p2257
aS'volatile'
p2258
aS'giani'
p2259
aS'sigman'
p2260
aS'slimming-belt'
p2261
aS'pacha'
p2262
aS'snap-button'
p2263
aVexpress
p2264
aS'poleci'
p2265
aS'rebel8'
p2266
aS'of-humanity'
p2267
aS'fiore'
p2268
aS'verte'
p2269
aS'kaviar'
p2270
aVtwill
p2271
aS'makowsky'
p2272
aS'silk'
p2273
aVluks
p2274
aS'sleeve'
p2275
aS'tracksuit'
p2276
aS'garcia'
p2277
aS'spiked'
p2278
aS'orlebar'
p2279
aVweaver
p2280
aVriver
p2281
aS'rivet'
p2282
aS'orca'
p2283
aS'missolin'
p2284
aVset
p2285
aS'vibia'
p2286
aS'iisli'
p2287
aS'rusconi'
p2288
aS'jade'
p2289
aS'vine'
p2290
aS'byron'
p2291
aS'see'
p2292
aS'dyrbergkern'
p2293
aS'sea'
p2294
aS'muehling'
p2295
aS'pecoraro'
p2296
aS'closed-toe'
p2297
aVanalog
p2298
aS'nicholas-kirkwood'
p2299
aVshower
p2300
aS'cutout-back'
p2301
aS'speed'
p2302
aS'bridgewater'
p2303
aS'ettinger'
p2304
aS'solemio'
p2305
aS'furhood'
p2306
aS'argento'
p2307
aVcutout
p2308
aVsundress
p2309
aVkangaroo
p2310
aS'roger-vivier'
p2311
aS'blow'
p2312
aS'lydell'
p2313
aVikat
p2314
aS'sherpani'
p2315
aS'repossi'
p2316
aVhalfframe
p2317
aS'loose-fitting'
p2318
aS'vanishing'
p2319
aS'dodostyle'
p2320
aS'form-fitting'
p2321
aS'chenille'
p2322
aS'stuller'
p2323
aS'marilyn'
p2324
aS'elbow-length'
p2325
aS'lerre'
p2326
aS'folding'
p2327
aVreverse
p2328
aVblockheel
p2329
aS'jocelyn'
p2330
aS'opal'
p2331
aS'tala'
p2332
aS'auden'
p2333
aVhenley
p2334
aS'thom'
p2335
aVpavers
p2336
aVsuede
p2337
aS'azza'
p2338
aS'multi-colored'
p2339
aS'diamond-accent'
p2340
aS'lanyard'
p2341
aS'etro'
p2342
aS'elliot'
p2343
aS'rofe'
p2344
aS'mini'
p2345
aS'simple'
p2346
aS'sammi'
p2347
aVripstop
p2348
aS'simply'
p2349
aS'chloe'
p2350
aVchurch
p2351
aS'fergalicious'
p2352
aS'belt'
p2353
aVplatinum
p2354
aS'devil'
p2355
aS'handkerchief'
p2356
aS'kenneth-jay'
p2357
aS'trilogy'
p2358
aS'jcrew'
p2359
aS'mikey'
p2360
aS'ubhi'
p2361
aS'geoffrey'
p2362
aS'secret'
p2363
aS'hoorsenbuhs'
p2364
aS'kitsun'
p2365
aS'yoana'
p2366
aS'crinoline'
p2367
aVheelless
p2368
aS'kathy'
p2369
aS'sweetheart'
p2370
aVsleeved
p2371
aVvidorreta
p2372
aS'fire'
p2373
aS'gat'
p2374
aVgas
p2375
aVgreat
p2376
aVgap
p2377
aS'marras'
p2378
aVgan
p2379
aS'gal'
p2380
aS'edun'
p2381
aS'muji'
p2382
aS'tank-top'
p2383
aS'pierce'
p2384
aS'fur'
p2385
aS'rossetti'
p2386
aS'coppola'
p2387
aS'raoul'
p2388
aVcaged
p2389
aS'straight'
p2390
aVbill
p2391
aS'lowluv'
p2392
aS'multi-row'
p2393
aS'sesame'
p2394
aS'tiered'
p2395
aS'jay-lane'
p2396
aS'kenneth-jay-lane'
p2397
aS'dominic'
p2398
aS'ross'
p2399
aS'heys'
p2400
aS'fui'
p2401
aS'armenta'
p2402
aS'reddy'
p2403
aS'moth'
p2404
aS'mystic'
p2405
aS'von'
p2406
aVvoi
p2407
aVmoto
p2408
aS'triple'
p2409
aS'soeur'
p2410
aS'oryany'
p2411
aS'monroe'
p2412
aS'chase'
p2413
aS'decor'
p2414
aS'italy'
p2415
aVrollable
p2416
aS'underwire'
p2417
aS'mint'
p2418
aS'wolfskin'
p2419
aVtruereligion
p2420
aS'ogio'
p2421
aVminu
p2422
aS'textile'
p2423
aS'sargisson'
p2424
aS'mor'
p2425
aS'nistri'
p2426
aS'khaki-pant'
p2427
aS'unoaerre'
p2428
aS'kellin'
p2429
aS'bead-charm'
p2430
aS'south-sea-pearl'
p2431
aS'pikachu'
p2432
aVleopard
p2433
aS'carryall'
p2434
aVtassle
p2435
aS'barbour'
p2436
aS'stripe'
p2437
aS'rabih'
p2438
aVstack
p2439
aVbootcut
p2440
aVjbw
p2441
aS'kno'
p2442
aVbeanie
p2443
aS'hexagon'
p2444
aS'kni'
p2445
aS'bathing-suit-bikini'
p2446
aS'restrepo'
p2447
aVconcrete
p2448
aVboat
p2449
aVnordic
p2450
aS'bicocchi'
p2451
aS'bandeau-bikini'
p2452
aVswiss
p2453
aS'andara'
p2454
aS'demantoid'
p2455
aS'mon'
p2456
aS'rive'
p2457
aS'isabel-de-pedro'
p2458
aS'criss-cross'
p2459
aS'hierro'
p2460
aVshape
p2461
aS'nanda'
p2462
aS'mob'
p2463
aValternative
p2464
aS'fit-flare'
p2465
aVswatch
p2466
aS'sterling-silver'
p2467
aS'jumpsuit'
p2468
aS'mavi'
p2469
aVsandal
p2470
aS'halaby'
p2471
aS'princess-cut'
p2472
aVcup
p2473
aS'melinda'
p2474
aS'loose-fit'
p2475
aS'rupert-sanderson'
p2476
aS'pea-coat'
p2477
aS'eastex'
p2478
aS'courtney'
p2479
aS'snap'
p2480
aS'bridal'
p2481
aS'huey'
p2482
aVwaxed
p2483
aS'tomas'
p2484
aS'australia'
p2485
aS'elizabeth-and-james'
p2486
aS'gaetano'
p2487
aS'chambermaid'
p2488
aS'big'
p2489
aVcouple
p2490
aS'bib'
p2491
aS'sam-edelman'
p2492
aS'notte'
p2493
aS'blouson-jacket'
p2494
aS'bit'
p2495
aS'coverup'
p2496
aS'flannel'
p2497
aVsemi
p2498
aVvinti
p2499
aVglove
p2500
aS'rider'
p2501
aS'howell'
p2502
aS'dartagnan'
p2503
aS'ivan'
p2504
aValexandra
p2505
aS'drumohr'
p2506
aS'alexandre'
p2507
aS'melville'
p2508
aS'lucien'
p2509
aS'victorio'
p2510
aS'pasionae'
p2511
aS'kaiaakmann'
p2512
aS'roman-numeral'
p2513
aS'back'
p2514
aS'lilly-pulitzer'
p2515
aS'hartmann'
p2516
aS'packham'
p2517
aVmirror
p2518
aVorigami
p2519
aS'curious'
p2520
aS'pale'
p2521
aS'rachana'
p2522
aS'scale'
p2523
aS'jewelry'
p2524
aVscala
p2525
aVpet
p2526
aS'full-tilt'
p2527
aVper
p2528
aVcast
p2529
aS'boucheron'
p2530
aS'religion'
p2531
aS'lara'
p2532
aS'swimsuit-bikini'
p2533
aVpeg
p2534
aVeyeglass
p2535
aS'sonia-rykiel'
p2536
aS'ba'
p2537
aS'bb'
p2538
aS'bc'
p2539
aS'open-front'
p2540
aS'procopiou'
p2541
aS'bi'
p2542
aS'bp'
p2543
aVsanta
p2544
aS'by'
p2545
aS'santi'
p2546
aVmorra
p2547
aS'eastland'
p2548
aS'annapurna'
p2549
aS'goody'
p2550
aS'oatmeal'
p2551
aS'choies'
p2552
aS'pale-pink'
p2553
aS'cobian'
p2554
aS'stuart'
p2555
aS'wrinkled'
p2556
aS'massimo'
p2557
aS'paul-morelli'
p2558
aS'repair'
p2559
aS'earphone-earbuds'
p2560
aS'plenty'
p2561
aS'doli'
p2562
aS'nsf'
p2563
aVseamless
p2564
aS'tiffany-co'
p2565
aS'oroton'
p2566
aVsteven
p2567
aS'goyard'
p2568
aS'tutu-skirt'
p2569
aS'beirn'
p2570
aVclutch
p2571
aS'katie'
p2572
aS'jarrar'
p2573
aS'red-label'
p2574
aS'ungaro'
p2575
aVsock
p2576
aS'de-pedro'
p2577
aS'zetterberg'
p2578
aS'lightning-bolt'
p2579
aS'boudicca'
p2580
aS'john-lewis'
p2581
aVsuit
p2582
aVmicrofleece
p2583
aVtstrap
p2584
aS'fluttersleeve'
p2585
aS'saddle-bag'
p2586
aS'cynthia-rowley'
p2587
aVpeeper
p2588
aS'primeboots'
p2589
aS'murphy'
p2590
aS'laceback'
p2591
aS't-shirt'
p2592
aS'link'
p2593
aS'cable-knit'
p2594
aS'line'
p2595
aS'charmed'
p2596
aS'fay'
p2597
aS'cie'
p2598
aVculotte
p2599
aS'somedays'
p2600
aS'detachable'
p2601
aVup
p2602
aS'pineau'
p2603
aVfailsworth
p2604
aVplanet
p2605
aS'loewe'
p2606
aS'18-karat'
p2607
aS'bodysui'
p2608
aS'apiece'
p2609
aS'tie-bikini'
p2610
aS'impo'
p2611
aS'back-zipper'
p2612
aS'constant'
p2613
aS'titel'
p2614
aS'moleskin'
p2615
aVcharcoal
p2616
aVchallis
p2617
aS'lanvin'
p2618
aS'chan'
p2619
aVdog
p2620
aVcreeper
p2621
aS'single'
p2622
aS'dangle-charm'
p2623
aS'madpax'
p2624
aS'lyle'
p2625
aS'materia'
p2626
aS'tenoversix'
p2627
aS'marquise'
p2628
aS'giorgio-armani'
p2629
aS'tara'
p2630
aS'ruban'
p2631
aS'qupid'
p2632
aS'vartanian'
p2633
aS'yigal'
p2634
aS'one-piece'
p2635
aS'playsuit-jumpsuit'
p2636
aS'akris'
p2637
aS'whitby'
p2638
aS'carrera'
p2639
aS'vauthier'
p2640
aS'tarr'
p2641
aS'dark-green'
p2642
aVtart
p2643
aS'roksanda'
p2644
aVtrouser
p2645
aS'papi'
p2646
aS'tanzanite'
p2647
aVsided
p2648
aS'pierre-hardy'
p2649
aS'lucia'
p2650
aS'bianca'
p2651
aS'moltedo'
p2652
aS'stouls'
p2653
aS'pineapple-print'
p2654
aS'fisher'
p2655
aVdesert
p2656
aS'bianco'
p2657
aS'lotta'
p2658
aS'lang'
p2659
aVtailored
p2660
aS'statesman'
p2661
aS'fighter'
p2662
aS'silvertone'
p2663
aVlana
p2664
aS'redopin'
p2665
aS'helly'
p2666
aS'mid-heel'
p2667
aVbeverage
p2668
aS'crinkle'
p2669
aS'walker'
p2670
aS'cornelian'
p2671
aS'noon'
p2672
aS'montaecristo'
p2673
aVjovani
p2674
aS'whiting'
p2675
aS'melissa-joy'
p2676
aVscratch
p2677
aS'knotted'
p2678
aS'cynthia'
p2679
aVhighwaisted
p2680
aS'totem'
p2681
aS'qvc'
p2682
aS'toggle'
p2683
aS'sanctuary'
p2684
aS'gossip'
p2685
aS'seasalt'
p2686
aS'falchi'
p2687
aS'apolis'
p2688
aS'inspire'
p2689
aS'chalayan'
p2690
aS'graver'
p2691
aS'pre-owned'
p2692
aS'clip-earring'
p2693
aS'bixby'
p2694
aS'tissot'
p2695
aS'young'
p2696
aS'tomtom'
p2697
aS'lalique'
p2698
aVteardrop
p2699
aS'stylestalker'
p2700
aS'waterford'
p2701
aS'scarlett'
p2702
aS'hadleyroma'
p2703
aS'panting'
p2704
aS'pianurastudio'
p2705
aS'consuelo'
p2706
aS'volum'
p2707
aS'assad'
p2708
aVdecorating
p2709
aS'libby'
p2710
aS'tri'
p2711
aS'gipsy'
p2712
aS'magid'
p2713
aS'eva'
p2714
aS'eve'
p2715
aVjoes
p2716
aS'aiaiai'
p2717
aS'windsor-smith'
p2718
aS'obesity'
p2719
aS'tru'
p2720
aS'rack'
p2721
aS'bernie'
p2722
aS'shelf-bra'
p2723
aVulster
p2724
aS'murad'
p2725
aVcrop
p2726
aVcrook
p2727
aS'carla'
p2728
aS'peeraer'
p2729
aS'odm'
p2730
aS'astley-clarke'
p2731
aVhaiku
p2732
aS'elise'
p2733
aS'copenhagen'
p2734
aS'sanuk'
p2735
aS'odd'
p2736
aS'dolman'
p2737
aS'victor'
p2738
aS'hamsa'
p2739
aS'anton'
p2740
aS'diamante'
p2741
aS'lolli'
p2742
aS'semi-precious-stone'
p2743
aS'sweaty'
p2744
aS'laurence'
p2745
aS'moschino'
p2746
aS'indian'
p2747
aS'kershaw'
p2748
aS'oval-cut'
p2749
aS'aurientis'
p2750
aS'bird'
p2751
aVthin
p2752
aS'body'
p2753
aVlee
p2754
aVleg
p2755
aS'gathered'
p2756
aS'jansport'
p2757
aS'cademartori'
p2758
aS'punch'
p2759
aS'jimmy-choo'
p2760
aS'calf-length'
p2761
aVpoverty
p2762
aS'licence'
p2763
aS'luis'
p2764
aS'sine'
p2765
aS'ruthie'
p2766
aS'trussardi'
p2767
aS'mawi'
p2768
aS'calter'
p2769
aS'31'
p2770
aVcigaretteleg
p2771
aS'golden-goose'
p2772
aS'uprichard'
p2773
aS'honor'
p2774
aS'curb-chain'
p2775
aS'twenty8twelve'
p2776
aS'holmes'
p2777
aVsire
p2778
aS'marella'
p2779
aS'faux-fur'
p2780
aS'dellacqua'
p2781
aVneiman
p2782
aS'braccialini'
p2783
aS'talon'
p2784
aS'limi'
p2785
aS'boxy'
p2786
aS'gold-tone'
p2787
aS'rosendahl'
p2788
aS'oval'
p2789
aS'cat-ear'
p2790
aVlime
p2791
aS'cha'
p2792
aS'elodie'
p2793
aS'band-of-outsider'
p2794
aVzip
p2795
aS'mendoza'
p2796
aS'hammered'
p2797
aS'cho'
p2798
aVcapri
p2799
aS'cut-out'
p2800
aVleatherette
p2801
aVchukka
p2802
aS'butler'
p2803
aS'yosca'
p2804
aS'pencil'
p2805
aS'michael-antonio'
p2806
aS'jeanlouis'
p2807
aS'babi'
p2808
aVtrait
p2809
aS'trollbeads'
p2810
aS'uterqe'
p2811
aS'side-cut'
p2812
aS'payne'
p2813
aS'finery'
p2814
aS'lavand'
p2815
aS'lane-bryant'
p2816
aS'rubellite'
p2817
aS'westwood-red-label'
p2818
aVbaby
p2819
aS'kenneth-cole'
p2820
aVbally
p2821
aS'needle'
p2822
aS'stussy'
p2823
aS'arnim'
p2824
aS'athleta'
p2825
aS'zircon'
p2826
aS'emerson'
p2827
aS'tag'
p2828
aS'balle'
p2829
aS'of'
p2830
aS'saba'
p2831
aS'leju'
p2832
aVwedge
p2833
aS'fringe'
p2834
aS'rodo'
p2835
aS'double-buckle'
p2836
aS'lock'
p2837
aS'benz'
p2838
aVsanding
p2839
aS'high'
p2840
aS'slit'
p2841
aS'slip'
p2842
aS'vdp'
p2843
aVearmuff
p2844
aS'expandable'
p2845
aS'trumpet'
p2846
aS'native'
p2847
aS'lamb'
p2848
aS'stefanel'
p2849
aS'lama'
p2850
aVcolorful
p2851
aS'revo'
p2852
aS'lame'
p2853
aS'portage'
p2854
aS'boxing'
p2855
aS'sakabe'
p2856
aS'pointed-toe'
p2857
aS'anastase'
p2858
aS'forest'
p2859
aS'animal'
p2860
aS'wolf'
p2861
aS'john-hardy'
p2862
aS'chou'
p2863
aS'skunkfunk'
p2864
aS'tiel'
p2865
aS'emanuele'
p2866
aVwatch
p2867
aS'philosophy'
p2868
aS'manish'
p2869
aS'gardner'
p2870
aS'notebook'
p2871
aS'collina'
p2872
aVjohnston
p2873
aS'hawk'
p2874
aS'tomato'
p2875
aS'ann-demeulemeester'
p2876
aS'ingersoll'
p2877
aS'drape'
p2878
aS'issa'
p2879
aS'twofinger'
p2880
aS'bing'
p2881
aS'straight-leg'
p2882
aS'cat-eye'
p2883
aVelement
p2884
aS'linen'
p2885
aS'philipp-plein'
p2886
aS'alloy'
p2887
aS'liebeskind'
p2888
aS'lined'
p2889
aS'solow'
p2890
aS'linea'
p2891
aS'windsmoor'
p2892
aS'houston'
p2893
aVantelope
p2894
aS'soft-cup'
p2895
aVthigh
p2896
aS'rodebjer'
p2897
aS'brunini'
p2898
aVmove
p2899
aS'kr3w'
p2900
aS'apricot'
p2901
aVreport
p2902
aVearth
p2903
aVmotorcycle
p2904
aS'schepps'
p2905
aVaustrian
p2906
aS'yamaguchi'
p2907
aS'worthington'
p2908
aS'galaxy'
p2909
aS'helgason'
p2910
aVle
p2911
aS'wearstler'
p2912
aS'crosby-derek-lam'
p2913
aS'la'
p2914
aS'jodi'
p2915
aS'botanical'
p2916
aVlk
p2917
aS'pullover'
p2918
aS'xhilaration'
p2919
aS'hobbs'
p2920
aS'speirs'
p2921
aS'vivanz'
p2922
aS'criminal'
p2923
aS'weber'
p2924
aS'miansai'
p2925
aS'earl'
p2926
aS'treesje'
p2927
aS'junction'
p2928
aS'messenger-bag'
p2929
aS'python'
p2930
aS'nada'
p2931
aS'spell'
p2932
aS'dai'
p2933
aS'landau'
p2934
aS'fine-knit'
p2935
aVsnake
p2936
aS'kiss'
p2937
aS'open-shoulder'
p2938
aS'palacios'
p2939
aS'light-purple'
p2940
aS'cage'
p2941
aS'day'
p2942
aS'zip-pouch'
p2943
aS'marlyn'
p2944
aS'moto-jacket'
p2945
aS'wrangler'
p2946
aS'suboo'
p2947
aS'leaf-garland'
p2948
aS'fivefingers'
p2949
aS'fjllrven'
p2950
aVradiant
p2951
aS'capellino'
p2952
aS'ebel'
p2953
aVmonkstrap
p2954
aS'amorim'
p2955
aS'morris'
p2956
aVlingerie
p2957
aS'betty'
p2958
aVtruth
p2959
aS'tights'
p2960
aS'shirt'
p2961
aS'rousseau'
p2962
aS'stylein'
p2963
aS'betts'
p2964
aS'gianfranco'
p2965
aVmets
p2966
aVbueno
p2967
aS'anya-hindmarch'
p2968
aS'custommade'
p2969
aS'strip'
p2970
aS'jagger'
p2971
aS'talullah'
p2972
aS'alejandro'
p2973
aS'animal-print'
p2974
aVsweatshirt
p2975
aVbay
p2976
aS'valvo'
p2977
aS'matt'
p2978
aS'rey'
p2979
aS'deep-vneck-tshirts'
p2980
aS'halter'
p2981
aS'miriam-haskell'
p2982
aS'aquilanorimondi'
p2983
aS'venom'
p2984
aVmate
p2985
aS'ren'
p2986
aS'stud'
p2987
aVmata
p2988
aS'multichain'
p2989
aS'charli'
p2990
aS'relaxed-fit'
p2991
aS'burke'
p2992
aS'mati'
p2993
aS'tabitha-simmons'
p2994
aS'jessica'
p2995
aS'steven-alan'
p2996
aS'frank'
p2997
aS'contrarian'
p2998
aS'tsovet'
p2999
aS'duffle'
p3000
aS'vinyl-skirting'
p3001
aS'collection'
p3002
aVmultistrap
p3003
aS'godfrey'
p3004
aVscary
p3005
aS'illesteva'
p3006
aS'gussie'
p3007
aS'midi'
p3008
aVwovenleather
p3009
aS'denimskirt'
p3010
aVskateboard
p3011
aS'david'
p3012
aS'blue-topaz'
p3013
aVlength
p3014
aS'farrow'
p3015
aS'laceup-ankle'
p3016
aS'davis'
p3017
aS'uniqlo'
p3018
aS'eliazov'
p3019
aS'angelique'
p3020
aS'kendall'
p3021
aS'calypso-st-barth'
p3022
aS'john-patrick'
p3023
aS'zizzi'
p3024
aVjustine
p3025
aS'strategia'
p3026
aS'ear-cuff'
p3027
aS'damir'
p3028
aS'ihn'
p3029
aS'prana'
p3030
aS'montaigne'
p3031
aVbijou
p3032
aS'julien'
p3033
aS'thornburg'
p3034
aS'sharon'
p3035
aS'sedgwick'
p3036
aS'lacoste'
p3037
aS'monkey'
p3038
aS'phantasya'
p3039
aS'calfskin'
p3040
aS'rockstar'
p3041
aS'double-chain'
p3042
aS'fahrenheit'
p3043
aS'rocha'
p3044
aS'polo-neck'
p3045
aVmonkee
p3046
aS'eagle-outfitter'
p3047
aS'escada'
p3048
aS'swimdress'
p3049
aS'chicco'
p3050
aS'pelle'
p3051
aS'bib-overall'
p3052
aVgummy
p3053
aS'quarry'
p3054
aS'nobody'
p3055
aS'megan'
p3056
aS'tummie'
p3057
aVburlesque
p3058
aS'grandpa'
p3059
aS'ag-adriano'
p3060
aS'intarsia'
p3061
aS'elite'
p3062
aS'steel'
p3063
aS'rayban'
p3064
aS'roberta'
p3065
aS'christian-dior'
p3066
aVslack
p3067
aS'roberto'
p3068
aS'moncler'
p3069
aS'dl1961'
p3070
aS'female'
p3071
aVhalcyon
p3072
aS'kage'
p3073
aVlight
p3074
aS'agate'
p3075
aS'morrison'
p3076
aS'friis'
p3077
aS'ipanema'
p3078
aS'see-by-chlo'
p3079
aS'maisner'
p3080
aS'elastic-waist'
p3081
aS'volcom'
p3082
aVgentle
p3083
aS'baublebar'
p3084
aS'curved'
p3085
aS'thick-glass'
p3086
aVmih
p3087
aVkisslock
p3088
aS'perlina'
p3089
aVmilly
p3090
aS'min'
p3091
aVmia
p3092
aS'tiara-crown'
p3093
aVmarais
p3094
aS'lindt'
p3095
aVmid
p3096
aS'gunex'
p3097
aS'side-cut-out'
p3098
aS'miz'
p3099
aS'oxxo'
p3100
aS'mikasa'
p3101
aS'linda'
p3102
aS'irene-neuwirth'
p3103
aS'satomi'
p3104
aVlugsole
p3105
aS'linde'
p3106
aS'macrame'
p3107
aS'finsk'
p3108
aS'kelly'
p3109
aS'plimsoll-sneaker'
p3110
aS'eres'
p3111
aS'cole-haan'
p3112
aVdorsay
p3113
aS'dkny'
p3114
aS'rick-owen'
p3115
aS'khazzam'
p3116
aS'kaftan-tunic'
p3117
aVhandbag
p3118
aS'31-phillip'
p3119
aS'broussard'
p3120
aS'metal-frame'
p3121
aS'stampd'
p3122
aS'breo'
p3123
aVparisian
p3124
aS'milano'
p3125
aS'bandolino'
p3126
aS'spense'
p3127
aVface
p3128
aS'ascot'
p3129
aS'ackermann'
p3130
aS'mustache'
p3131
aS'agnona'
p3132
aS'maison-margiela'
p3133
aVskinny
p3134
aS'bibhu'
p3135
aS'batgirl'
p3136
aS'gore'
p3137
aS'hoodies'
p3138
aS'kite'
p3139
aS'elie'
p3140
aS'smythe'
p3141
aS'carvela-kurt-geiger'
p3142
aS'chippewa'
p3143
aS'delettrez'
p3144
aS'dip-dyed'
p3145
aS'side-zipper'
p3146
aS'rouge'
p3147
aS'junya'
p3148
aS'sparkz'
p3149
aS'kiss-lock'
p3150
aS'mesh-inset'
p3151
aS'jay'
p3152
aS'bhldn'
p3153
aS'side-slit'
p3154
aS'san-diego'
p3155
aS'jas'
p3156
aS'wkleinberg'
p3157
aS'supply-co'
p3158
aS'jan'
p3159
aVkneehigh
p3160
aS'bionda'
p3161
aS'shopping-bag'
p3162
aS'jai'
p3163
aS'jag'
p3164
aS'sylvia'
p3165
aS'ruffle-hem'
p3166
aS'hope'
p3167
aS'marimekko'
p3168
aS'jacqueline'
p3169
aS'insight'
p3170
aS'handle'
p3171
aS'harleydavidson'
p3172
aS'polyurethane'
p3173
aVbeau
p3174
aS'prada'
p3175
aS'miguelina'
p3176
aVlucky
p3177
aS'pave'
p3178
aS'calderara'
p3179
aS'wiggle'
p3180
aS'bead'
p3181
aVstriped
p3182
aS'bondi'
p3183
aS'gillett'
p3184
aS'berin'
p3185
aVfuchsia
p3186
aS'otbt'
p3187
aS'lala'
p3188
aS'reid'
p3189
aS'mascara'
p3190
aS'cachet'
p3191
aS'parikka'
p3192
aS'joanna'
p3193
aS'allurez'
p3194
aS'chronotech'
p3195
aS'cromia'
p3196
aVmidcalf
p3197
aS'effies'
p3198
aVovertheknee
p3199
aS'frame'
p3200
aS'luichiny'
p3201
aS'brixton'
p3202
aS'edition'
p3203
aS'alessandro'
p3204
aS'dragon'
p3205
aS'sessn'
p3206
aS'meili'
p3207
aS'alessandra'
p3208
aVjardin
p3209
aS'monros'
p3210
aS'wire'
p3211
aVsuperhero
p3212
aS'madras'
p3213
aS'elope'
p3214
aVpattern
p3215
aS'kilcollin'
p3216
aS'nebula'
p3217
aS'ralph'
p3218
aS'epaule'
p3219
aS'colorblock'
p3220
aS'bruni'
p3221
aS'bruno'
p3222
aS'demobaza'
p3223
aS'warren'
p3224
aS'gemstone'
p3225
aS'reinhardt'
p3226
aS'adriana'
p3227
aS'hvbao'
p3228
aS'wijnants'
p3229
aS'shedrain'
p3230
aS'charlotte-olympia'
p3231
aS'lafayette'
p3232
aS'antica'
p3233
aVstaring
p3234
aS'capezio'
p3235
aS'ramy'
p3236
aS'openstitch'
p3237
aS'dexterjones'
p3238
aS'zac-posen'
p3239
aS'maggy'
p3240
aS'ukala'
p3241
aS'tasseled'
p3242
aS'puff'
p3243
aS'shashi'
p3244
aS'lowepro'
p3245
aS'wide-leg'
p3246
aS'ck'
p3247
aS'scholls'
p3248
aVco
p3249
aS'cl'
p3250
aS'cc'
p3251
aS'denim'
p3252
aS'newgate'
p3253
aS'bootie-boot'
p3254
aS'merino-wool'
p3255
aS'tonello'
p3256
aVcz
p3257
aS'gaspard'
p3258
aS'denis'
p3259
aS'brinley'
p3260
aS'unearthen'
p3261
aS'pour-la'
p3262
aVcp
p3263
aS'jacquie'
p3264
aS'terani'
p3265
aS'hawkins'
p3266
aS'cejon'
p3267
aS'altuzarra'
p3268
aS'bumblebee'
p3269
aS'farah'
p3270
aS'darren'
p3271
aS'genetic'
p3272
aS'applique'
p3273
aS'aquamarine'
p3274
aS'pugh'
p3275
aS'feather'
p3276
aS'frye'
p3277
aS'gripoix'
p3278
aS'liska'
p3279
aS'aubrey'
p3280
aS'baume'
p3281
aVcrisscross
p3282
aS'michalsky'
p3283
aS'arzuaga'
p3284
aS'deep'
p3285
aS'lgr'
p3286
aVtoasting
p3287
aS'aramis'
p3288
aVland
p3289
aS'multi'
p3290
aS'plaid'
p3291
aS'irregular'
p3292
aS'ysl'
p3293
aS'reminiscence'
p3294
aS'rectangular'
p3295
aS'long-sleeve'
p3296
aS'jitrois'
p3297
aS'triwa'
p3298
aS'constantin'
p3299
aS'venna'
p3300
aS'elisabetta'
p3301
aVombre
p3302
aVat
p3303
aS'camomilla'
p3304
aS'vc'
p3305
aVhelper
p3306
aS'almost'
p3307
aS'baggallini'
p3308
aS'hardware'
p3309
aS'gregis'
p3310
aS'stud-earring'
p3311
aS'king-baby-studio'
p3312
aS'shortsleeve-buttondown'
p3313
aS'tattoo'
p3314
aS'frantzen'
p3315
aS'navy-blue'
p3316
aS'davidelfin'
p3317
aS'nerd'
p3318
aVanorak
p3319
aS'matthew'
p3320
aS'pamela-love'
p3321
aS'gotha'
p3322
aS'maurie'
p3323
aS'san-diego-hat'
p3324
aS'paule'
p3325
aS'carven'
p3326
aS'fabi'
p3327
aS'dan'
p3328
aS'paula'
p3329
aS'fielden'
p3330
aS'toppo'
p3331
aS'chrysoprase'
p3332
aS'raymond'
p3333
aS'multistrand'
p3334
aS'samantha'
p3335
aS'chaiken'
p3336
aS'mihara'
p3337
aS'neckline'
p3338
aVdak
p3339
aS'lc-lauren'
p3340
aS'mosaic'
p3341
aS'cross-back'
p3342
aS'house-of-harlow-1960'
p3343
aVoff
p3344
aS'phax'
p3345
aS'seth'
p3346
aS'krypell'
p3347
aS'antonio'
p3348
aS'wet-look'
p3349
aS'belmondo'
p3350
aS'antonio-berardi'
p3351
aS'rocio'
p3352
aS'muscle'
p3353
aS'sempione'
p3354
aS'flutter-sleeve'
p3355
aS'asymmetrical'
p3356
aS'pauw'
p3357
aS'storer'
p3358
aS'akira'
p3359
aS'liliana'
p3360
aVemerald
p3361
aS'brian-lichtenberg'
p3362
aS'reina'
p3363
aS'dakota'
p3364
aS'tutera'
p3365
aS'paul'
p3366
aS'konplott'
p3367
aS'web'
p3368
aVcigarette
p3369
aS'ganni'
p3370
aS'field'
p3371
aS'caravelle'
p3372
aVwei
p3373
aS'baccarat'
p3374
aVlake
p3375
aS'transparent'
p3376
aS'wes'
p3377
aS'lattice'
p3378
aS'voile'
p3379
aS'crew-neck'
p3380
aS'rufflecollar'
p3381
aVada
p3382
aS'embossed'
p3383
aS'van-cleef-arpels'
p3384
aS'aperla'
p3385
aS'modolo'
p3386
aS'raven'
p3387
aS'jogger-pant'
p3388
aS'piel'
p3389
aS'tach'
p3390
aS'knee-length'
p3391
aS'sabatini'
p3392
aS'pied'
p3393
aS'haus'
p3394
aS'fuji'
p3395
aVcruz
p3396
aVfrayed
p3397
aS'sephora'
p3398
aVpier
p3399
aS'mid-length'
p3400
aS'sparkly'
p3401
aS'motorola'
p3402
aS'emma'
p3403
aS'trelise'
p3404
aS'merkin'
p3405
aS'cheap-monday'
p3406
aVmatte
p3407
aS'resin'
p3408
aVarmani
p3409
aS'soft'
p3410
aS'waltham'
p3411
aS'halston'
p3412
aS'kaleidoscope'
p3413
aS'brochu'
p3414
aS'zales'
p3415
aS'quinn'
p3416
aS'ilai'
p3417
aS'top-sider'
p3418
aS'bille'
p3419
aVhair
p3420
aVmajestic
p3421
aS'mariella'
p3422
aS'grard-darel'
p3423
aS'bayne'
p3424
aS'shrug'
p3425
aS'bjrg'
p3426
aS'trust'
p3427
aS'beat-by-dr-dre'
p3428
aS'movado'
p3429
aVmoda
p3430
aS'leetha'
p3431
aS'corpse'
p3432
aS'blue-nile'
p3433
aS'toggle-clasp'
p3434
aS'double-breasted'
p3435
aS'pepper'
p3436
aS'oneill'
p3437
aS'tracey'
p3438
aS'dci'
p3439
aS'laser-cut'
p3440
aS'kirchhoff'
p3441
aS'mantu'
p3442
aS'yvessaintlaurent'
p3443
aS'tbags'
p3444
aS'panel'
p3445
aS'andea'
p3446
aS'iris'
p3447
aVsister
p3448
aS'victoriabeckham'
p3449
aS'justin'
p3450
aS'ribbed'
p3451
aVslingback
p3452
aS'preen'
p3453
aS'union'
p3454
aS'princesse'
p3455
aS'orlogi'
p3456
aS'soludos'
p3457
aS'warner'
p3458
aS'tome'
p3459
aS'abstrac'
p3460
aS'cadet'
p3461
aS'guitar-pick'
p3462
aS'kayrouz'
p3463
aS'marled'
p3464
aS'haurex'
p3465
aS'shawl-collar'
p3466
aS'catherine'
p3467
aS'selima'
p3468
aS'hinged'
p3469
aS'vlieger'
p3470
aS'luna'
p3471
aS'hubert'
p3472
aS'mero'
p3473
aS'merc'
p3474
aS'cacciatori'
p3475
aS'ren-caovilla'
p3476
aVanklet
p3477
aVsander
p3478
aS'alpaca'
p3479
aS'caribee'
p3480
aS'annabel'
p3481
aS'peugeot'
p3482
aVbuckle
p3483
aS'omelle'
p3484
aVflamingo
p3485
aS'hyun'
p3486
aS'josh-goot'
p3487
aS'citrine'
p3488
aS'annette'
p3489
aS'ditsy'
p3490
aS'laredo'
p3491
aS'yarnz'
p3492
aS'funnel'
p3493
aS'fat-face'
p3494
aS'fascinator'
p3495
aS'acid-wash'
p3496
aS'landsend'
p3497
aVpixie
p3498
aS'havana'
p3499
aS'manoogian'
p3500
aS'imoni'
p3501
aS'be'
p3502
aS'inverted'
p3503
aS'lip-print'
p3504
aS'naning9'
p3505
aS'lynn'
p3506
aS'carmella'
p3507
aS'asprey'
p3508
aS'society'
p3509
aS'shrunk'
p3510
aVflip
p3511
aS'fenton'
p3512
aS'ellington'
p3513
aS'farrar'
p3514
aS'duro'
p3515
aS'burberry'
p3516
aS'pin'
p3517
aS'enza-costa'
p3518
aS'garter'
p3519
aS'marmot'
p3520
aVcircus
p3521
aS'mcm'
p3522
aS'fausto-puglisi'
p3523
aVweston
p3524
aS'sibling'
p3525
aS'floralskirt'
p3526
aS'van-der-straeten'
p3527
aS'fitbit'
p3528
aS'sherri-hill'
p3529
aS'lespagnard'
p3530
aVthighhigh
p3531
aVtsavorite
p3532
aVessentiels
p3533
aS'lodis'
p3534
aS'47'
p3535
aS'44'
p3536
aS'oak'
p3537
aS'detail'
p3538
aS'janna-conner'
p3539
aS'thakoon'
p3540
aS'oas'
p3541
aS'sandy'
p3542
aS'acne-studio'
p3543
aS'wing'
p3544
aS'illusion'
p3545
aVponytail
p3546
aS'handcrafted'
p3547
aVquartz
p3548
aVnrides
p3549
aS'sydney-evan'
p3550
aS'tote-bag'
p3551
aVpeeptoe
p3552
aS'snake-skin'
p3553
aVlens
p3554
aS'zero-gravity'
p3555
aS'bitsy'
p3556
aS'gatsby'
p3557
aS'two-sided'
p3558
aS'ghost'
p3559
aS'mitten-glove'
p3560
aS'mephisto'
p3561
aS'kardashian'
p3562
aS'baker'
p3563
aS'surplice'
p3564
aS'eos'
p3565
aS'tankini'
p3566
aVtorrid
p3567
aS'seawolf'
p3568
aS'blackwhite'
p3569
aS'limited'
p3570
aS'steiger'
p3571
aS'lspace'
p3572
aS'engravable-charm'
p3573
aS'magnetic'
p3574
aS'vila'
p3575
aS'elisabeth'
p3576
aS'tibi'
p3577
aS'blanket'
p3578
aS'inara'
p3579
aS'republic-la'
p3580
aS'ozzy'
p3581
aS'half-frame'
p3582
aS'pedro'
p3583
aS'paris'
p3584
aS'pedre'
p3585
aS'magaschoni'
p3586
aS'ali'
p3587
aS'kashmiere'
p3588
aVpatched
p3589
aVcrosstrainer
p3590
aS'posh-girl'
p3591
aS'toile-isabel-marant'
p3592
aS'diamond-cluster'
p3593
aS'cushe'
p3594
aS'biko'
p3595
aS'tweed'
p3596
aS'lionel'
p3597
aS'transparen'
p3598
aS'marc-jacob'
p3599
aS'geode'
p3600
aS'pointy-toe'
p3601
aS'mayle'
p3602
aS'aurora'
p3603
aS'jennifer-zeuner'
p3604
aS'capelet'
p3605
aS'multi-chain'
p3606
aS'by-dr-dre-headphone'
p3607
aS'jack'
p3608
aS'jacob'
p3609
aS'drape-neck'
p3610
aS'neuw'
p3611
aS'pique'
p3612
aS'adult-halloween'
p3613
aS'open-back'
p3614
aS'disc'
p3615
aS'red'
p3616
aS'poppy'
p3617
aS'venus'
p3618
aVoblong
p3619
aS'biyan'
p3620
aS'vincenzo'
p3621
aS'eileen'
p3622
aS'knitwear'
p3623
aVbicycle
p3624
aS'horn'
p3625
aS'street'
p3626
aVlacy
p3627
aS'panda'
p3628
aS'goossens'
p3629
aS'decadence'
p3630
aS'blue'
p3631
aS'aminaka'
p3632
aS'wrap-front'
p3633
aS'christ'
p3634
aS'kut'
p3635
aS'alexis-bittar'
p3636
aS'blackandgold'
p3637
aS'liberty'
p3638
aS'snake-print'
p3639
aVminty
p3640
aVabove
p3641
aS'amun'
p3642
aS'emily'
p3643
aS'dauphin'
p3644
aS'sheerpanel'
p3645
aS'disney'
p3646
aS'philippe'
p3647
aS'frani'
p3648
aS'zack'
p3649
aS'dauphines'
p3650
aS'taryn'
p3651
aS'cena'
p3652
aS'cinzia'
p3653
aVgoldface
p3654
aS'desmo'
p3655
aS'fornash'
p3656
aS'beck'
p3657
aS'pratt'
p3658
aS'calvin-klein'
p3659
aS'studio'
p3660
aS'groundzero'
p3661
aS'textured'
p3662
aS'headwrap'
p3663
aS'victoria-secret-pink'
p3664
aS'gerry'
p3665
aS'libertinelibertine'
p3666
aVsmoky
p3667
aS'dolceandgabbana'
p3668
aS'precis'
p3669
aVjogging
p3670
aS'moonstone'
p3671
aS'vivienne'
p3672
aS'tye-die'
p3673
aS'skull-cap'
p3674
aVpendant
p3675
aS'brora'
p3676
aS'verdura'
p3677
aS'marianne'
p3678
aVstraw
p3679
aS'julie'
p3680
aS'maurizio'
p3681
aS'strap'
p3682
aS'sloane'
p3683
aS'activa'
p3684
aS'melani'
p3685
aS'cassini'
p3686
aS'kaporal'
p3687
aS'philip'
p3688
aS'bra'
p3689
aS'peridot'
p3690
aS'sarah'
p3691
aS'sebbag'
p3692
aS'chatham'
p3693
aS'style-co'
p3694
aS'alligator'
p3695
aS'sweater'
p3696
aS'letter-charm'
p3697
aS'cap-sleeve'
p3698
aS'forevermark'
p3699
aS'giallo'
p3700
aVspike
p3701
aS'crosby-derek'
p3702
aS'pistil'
p3703
aS'camisole-tank'
p3704
aS'roll-up'
p3705
aS'hahn'
p3706
aS'rust'
p3707
aS'nord'
p3708
aS'robbins'
p3709
aS'backless'
p3710
aS'hair-clip'
p3711
aS'silpada'
p3712
aS'travelsmith'
p3713
aS'vpl'
p3714
aS'chelsea-crew'
p3715
aS'pouch'
p3716
aS'blocking'
p3717
aS'tadashi'
p3718
aS'me'
p3719
aS'piero'
p3720
aS'mf'
p3721
aS'word'
p3722
aS'mb'
p3723
aS'mulisha'
p3724
aS'custo'
p3725
aS'mo'
p3726
aVwork
p3727
aS'weitzman'
p3728
aS'worn'
p3729
aS'joie'
p3730
aVdizzy
p3731
aS'tna'
p3732
aVera
p3733
aS'merida'
p3734
aS'henry'
p3735
aS'ficcare'
p3736
aS'orthaheel'
p3737
aS'carmen'
p3738
aS'soliver'
p3739
aS'gloria'
p3740
aS'faith-connexion'
p3741
aS'lurex'
p3742
aVdyeable
p3743
aS'mikio'
p3744
aS'zella'
p3745
aVdolphin
p3746
aS'angiolini'
p3747
aVwoman
p3748
aS'ongossamer'
p3749
aVr13
p3750
aS'slane'
p3751
aS'sugarhill'
p3752
aS'santana'
p3753
aVend
p3754
aS'swanepoel'
p3755
aS'trill'
p3756
aS'supertrash'
p3757
aS'macys'
p3758
aS'mnml'
p3759
aS'kreepsville'
p3760
aS'heather-gray'
p3761
aS'american-eagle-outfitter'
p3762
aS'otterbox'
p3763
aS'dimepiece'
p3764
aS'mara-hoffman'
p3765
aS'bow-back'
p3766
aS'sweat-shirt'
p3767
aS'bebop'
p3768
aS'riani'
p3769
aS'jessica-simpson'
p3770
aS'elizabeth'
p3771
aS'stefani'
p3772
aS'ladder'
p3773
aS'after'
p3774
aS'lab'
p3775
aS'azuni'
p3776
aS'adia'
p3777
aVmesh
p3778
aS'pianegonda'
p3779
aS'diamonique'
p3780
aS'kooples'
p3781
aS'konstantino'
p3782
aS'lau'
p3783
aS'24-karat-gold'
p3784
aS'mcdonough'
p3785
aS'hadaki'
p3786
aS'block-heel'
p3787
aS'splendid'
p3788
aS'plage'
p3789
aS'biala'
p3790
aS'bikkembergs'
p3791
aS'samanta'
p3792
aVharley
p3793
aVgreek
p3794
aS'green'
p3795
aVscarf
p3796
aS'anenberg'
p3797
aS'holst'
p3798
aS'rivka'
p3799
aS'michaelkors'
p3800
aS'floppy-hat'
p3801
aS'dkode'
p3802
aS'patmos'
p3803
aS'alkemie'
p3804
aS'sperry-topsider'
p3805
aVsprout
p3806
aVover
p3807
aS'north-face'
p3808
aS'nialaya'
p3809
aS'ahluwalia'
p3810
aVmallary
p3811
aS'pascal'
p3812
aS'nakamol'
p3813
aVvita
p3814
aS'askill'
p3815
aS'edith'
p3816
aVchristie
p3817
aVdestroyed
p3818
aS'hakim'
p3819
aS'noemi'
p3820
aS'crombie'
p3821
aS'muse-eyewear'
p3822
aS'clu'
p3823
aS'tie-front'
p3824
aS'fado'
p3825
aS'marsll'
p3826
aS'versus'
p3827
aS'pencey'
p3828
aS'nightcap'
p3829
aS'larok'
p3830
aS'joomi'
p3831
aVfragment
p3832
aS'jonathan-simkhai'
p3833
aS'tresor'
p3834
aS'giraffe'
p3835
aS'milanoo'
p3836
aS'anklet-bracelet'
p3837
aS'grachvogel'
p3838
aS'kayture'
p3839
aS'10-crosby-derek-lam'
p3840
aS'ermanno-scervino'
p3841
aS'rare-london'
p3842
aVcroco
p3843
aS'leather-sole'
p3844
aS'alex'
p3845
aS'crossbody'
p3846
aS'dingo'
p3847
aS'leather-cord'
p3848
aS'classified'
p3849
aS'narciso-rodriguez'
p3850
aS'alexis'
p3851
aS'costella'
p3852
aS'crewneck'
p3853
aVanastasia
p3854
aS'misbehave'
p3855
aS'nila-anthony'
p3856
aVcashmere
p3857
aS'torrini'
p3858
aS'alexia'
p3859
aVcrocs
p3860
aS'carlos'
p3861
aS'rumbatime'
p3862
aVroxy
p3863
aS'roxx'
p3864
aS'pijama'
p3865
aS'diana'
p3866
aS'mikoh'
p3867
aVdiane
p3868
aVwaffle
p3869
aVautre
p3870
aS'elwood'
p3871
aVspinner
p3872
aVlogo
p3873
aS'poncho'
p3874
aS'thigh-high'
p3875
aS'bar-iii'
p3876
aS'chrissie'
p3877
aS'burlap'
p3878
aS'monrs'
p3879
aS'god'
p3880
aVmotel
p3881
aS'10-crosby-derek'
p3882
aVdiesel
p3883
aS'danier'
p3884
aS'vandam'
p3885
aS'forte'
p3886
aS'crop-top'
p3887
aS'one-piece-swimsuit'
p3888
aS'amethyst'
p3889
aS'got'
p3890
aS'kokosalaki'
p3891
aS'judith'
p3892
aS'hanro'
p3893
aS'hogan'
p3894
aS'styleberry'
p3895
aS'zoya'
p3896
aS'marani'
p3897
aS'theodora'
p3898
aS'inox'
p3899
aS'free'
p3900
aS'fred'
p3901
aS'asymmetrical-hem-skort'
p3902
aS'rag-bone'
p3903
aS'hematite'
p3904
aS'muller'
p3905
aS'renee'
p3906
aS'earbuds'
p3907
aVraisin
p3908
aS'ek-thongprasert'
p3909
aS'allen-schwartz'
p3910
aS'redline'
p3911
aS'carlo'
p3912
aS'brioni'
p3913
aVsoda
p3914
aS'damaris'
p3915
aS'isola'
p3916
aS'rane'
p3917
aS'maggie'
p3918
aS'swim-wear'
p3919
aS'pyrex'
p3920
aS'shantung'
p3921
aS'ann-taylor'
p3922
aS'roberto-coin'
p3923
aS'cubic-zirconia'
p3924
aS'another'
p3925
aS'victorinox'
p3926
aVthick
p3927
aS'unionbay'
p3928
aVballin
p3929
aS'mojo'
p3930
aS'nina-ricci'
p3931
aS'with-love'
p3932
aS'toy'
p3933
aS'revival'
p3934
aS'nomia'
p3935
aVtop
p3936
aS'droog'
p3937
aS'breton-stripe'
p3938
aS'kamalikulture'
p3939
aS'toi'
p3940
aS'horn-rimmed'
p3941
aVtom
p3942
aS'degreas'
p3943
aS'flip-flop'
p3944
aS'john'
p3945
aVboot
p3946
aVtod
p3947
aVtoe
p3948
aS'urban'
p3949
aS'revlon'
p3950
aVtool
p3951
aS'albert'
p3952
aS'tassel'
p3953
aVembellish
p3954
aS'robyn'
p3955
aVankle
p3956
aS'coin-purse'
p3957
aS'bamford'
p3958
aS'chiarella'
p3959
aS'norton'
p3960
aS'piazza'
p3961
aS'bebe'
p3962
aS'holdall'
p3963
aS'target'
p3964
aS'rampage'
p3965
aS'gabor'
p3966
aS'rolex'
p3967
aS'aztec'
p3968
aS'merci'
p3969
aVhuarache
p3970
aS'iron'
p3971
aS'vanrycke'
p3972
aVhologram
p3973
aVraf
p3974
aS'bridge'
p3975
aS'rad'
p3976
aS'fashion'
p3977
aS'bernson'
p3978
aS'miista'
p3979
aS'fabulicious'
p3980
aVlulu
p3981
aS'bini'
p3982
aS'luli'
p3983
aS'raw'
p3984
aS'overall-jumpsuit'
p3985
aS'pythonprint'
p3986
aS'lbd'
p3987
aS'cross-body'
p3988
aS'forever21'
p3989
aS'spade'
p3990
aVray
p3991
aS'lulu-frost'
p3992
aS'necktie'
p3993
aV1961
p3994
aS'round-cut'
p3995
aS'extra-long'
p3996
aVfreebird
p3997
aS'maxi'
p3998
aS'pinafore'
p3999
aS'luxury'
p4000
aS'snowflake'
p4001
aVinsulated
p4002
aS'maiden'
p4003
aS'waist-belt'
p4004
aS'5-panel'
p4005
aS'ohne'
p4006
aS'sthrling'
p4007
aS'sethi'
p4008
aS'maaji'
p4009
aS'shoshanna'
p4010
aS'coil'
p4011
aS'coin'
p4012
aS'sweatshirt-hoodies'
p4013
aS'back-zip'
p4014
aS'pintuck'
p4015
aVmacpherson
p4016
aS'bracken'
p4017
aS'dubarry'
p4018
aS'treaty'
p4019
aS'deacon'
p4020
aS'yang'
p4021
aS'deeply'
p4022
aS'vernissage'
p4023
aS'ulla'
p4024
aS'lc-lauren-conrad'
p4025
aS'chiemsee'
p4026
aVfitted
p4027
aS'ariya'
p4028
aS'bimba'
p4029
aS'sebago'
p4030
aS'seibel'
p4031
aVmitten
p4032
aS'by-john-patrick'
p4033
aS'lewis'
p4034
aS'queen'
p4035
aS'sage'
p4036
aVchandelier
p4037
aVburgundy
p4038
aVsubtle
p4039
aS'fleur'
p4040
aVpegleg
p4041
aS'rossopuro'
p4042
aS'toast'
p4043
aS'fishing-hat'
p4044
aS'sewn'
p4045
aS'florenz'
p4046
aS'jarbo'
p4047
aS'skye'
p4048
aVpointedtoe
p4049
aS'carin'
p4050
aS'aldo'
p4051
aS'brogue-oxford'
p4052
aVknuckle
p4053
aS'rimon'
p4054
aVrectangle
p4055
aS'ipad'
p4056
aS'skaterskirt'
p4057
aS'dm'
p4058
aS'dk'
p4059
aS'di'
p4060
aS'dg'
p4061
aS'habana'
p4062
aS'credit-card-holder'
p4063
aS'kaelen'
p4064
aVdc
p4065
aVwallis
p4066
aS'plus-size'
p4067
aS'dy'
p4068
aS'dv'
p4069
aS'rolled-up'
p4070
aS'du'
p4071
aS'dr'
p4072
aS'chanel'
p4073
aS'holland'
p4074
aS'wynne'
p4075
aS'colangelo'
p4076
aS'pearson'
p4077
aVwideleg
p4078
aS'gareth'
p4079
aS'dominique'
p4080
aS'lucchino'
p4081
aS'sibilia'
p4082
aS'emi'
p4083
aVemu
p4084
aS'clip-on'
p4085
aS'automatic'
p4086
aVsteam
p4087
aS'pyrite'
p4088
aS'nur'
p4089
aS'rundholz'
p4090
aS'button-front'
p4091
aS'ayaka'
p4092
aS'inkkas'
p4093
aS'ruffle'
p4094
aS'tommy'
p4095
aS'by-marc-jacob'
p4096
aVgladiator
p4097
aS'betseyville'
p4098
aVpastel
p4099
aS'jrene'
p4100
aS'panerai'
p4101
aS'swimwear'
p4102
aS'propt'
p4103
aS'mug'
p4104
aVfinger
p4105
aS'kleinberg'
p4106
aS'tressa'
p4107
aVmuk
p4108
aS'we'
p4109
aS'pu-leather'
p4110
aS'mm6-maison-margiela'
p4111
aS'elk'
p4112
aS'siwy'
p4113
aS'silla'
p4114
aS'tom-ford'
p4115
aVmetal
p4116
aS'nashelle'
p4117
aS'feidt'
p4118
aS'graypants'
p4119
aS'wear'
p4120
aS'convertible'
p4121
aS'improvd'
p4122
aS'gomax'
p4123
aS'cop'
p4124
aS'cor'
p4125
aVcow
p4126
aS'credit-card'
p4127
aVjelly
p4128
aS'ili'
p4129
aS'facet'
p4130
aS'layered'
p4131
aS'straw-hat'
p4132
aS'diane-von-furstenberg'
p4133
aS'ily'
p4134
aS'fleece-lined'
p4135
aS'ela'
p4136
aVtoni
p4137
aS'royal'
p4138
aS'thierry'
p4139
aS'karen'
p4140
aS'brook-brother'
p4141
aS'tony'
p4142
aS'naka'
p4143
aS'heals'
p4144
aS'pyrrha'
p4145
aS'organza'
p4146
aS'jules'
p4147
aS'psoma'
p4148
aS'alfani'
p4149
aVroper
p4150
aS'been'
p4151
aS'fiorentina'
p4152
aVbeer
p4153
aS'fereti'
p4154
aS'byoung'
p4155
aS'spagnoli'
p4156
aS'noel'
p4157
aS'sachi'
p4158
aS'cesare'
p4159
aS'gabby'
p4160
aS'noee'
p4161
aS'screen-print'
p4162
aVloft
p4163
aS'usagi'
p4164
aS'baum'
p4165
aS'gemma'
p4166
aS'anyi'
p4167
aS'ichi'
p4168
aS'honestus'
p4169
aS'craft'
p4170
aS'vera-wang'
p4171
aS'herv-van-der-straeten'
p4172
aVpalladium
p4173
aS'coldwater'
p4174
aS'barcel'
p4175
aS'tide'
p4176
aS'fallon'
p4177
aS'bertha'
p4178
aS'air'
p4179
aVmidrise
p4180
aS'betmar'
p4181
aS'property'
p4182
aS'swim-cover-up'
p4183
aS'veronica'
p4184
aS'blugirl'
p4185
aS'pyramid'
p4186
aS'vogel'
p4187
aS'stine'
p4188
aS'bodycon'
p4189
aS'audrey'
p4190
aS'ilya'
p4191
aS'tissue'
p4192
aVcone
p4193
aS'tankini-top'
p4194
aS'la-renta'
p4195
aS'antonini'
p4196
aS'mariechavez'
p4197
aS'sweetheart-neckline'
p4198
aS'nike'
p4199
aS'j-mendel'
p4200
aS'large'
p4201
aS'saskia'
p4202
aS'boater'
p4203
aS'plunging-neckline'
p4204
aS'gianmarco'
p4205
aS'monarch'
p4206
aS'bunny'
p4207
aS'sculptural'
p4208
aS'plating'
p4209
aS'barrera'
p4210
aS'sergio-rossi'
p4211
aS'pinstripe'
p4212
aVrail
p4213
aS'evil'
p4214
aVhand
p4215
aS'visvim'
p4216
aS'carolina-bucci'
p4217
aS'swimming-bikini'
p4218
aS'maruyama'
p4219
aS'patagonia'
p4220
aS'n21'
p4221
aS'joop'
p4222
aS'danang'
p4223
aVjeggings
p4224
aS'schott'
p4225
aS'piccard'
p4226
aS'charlie'
p4227
aS'sandra'
p4228
aS'aish'
p4229
aVinov8
p4230
aS'dr-dre-headphone'
p4231
aS'koza'
p4232
aS'monaco'
p4233
aS'karine'
p4234
aS'jimmychoo'
p4235
aS'spencer'
p4236
aS'mcclintock'
p4237
aVindigo
p4238
aVelasticcuff
p4239
aS'brenner'
p4240
aVathletic
p4241
aS'photo'
p4242
aS'laptop'
p4243
aS'tuleh'
p4244
aS'pullbear'
p4245
aS'gold-filled'
p4246
aS'roll-tab'
p4247
aS'salvage'
p4248
aS'picasso'
p4249
aS'campbell'
p4250
aS'annoushka'
p4251
aS'sakkas'
p4252
aS'jose'
p4253
aVtransformer
p4254
aS'heart-shaped'
p4255
aS'running-shoe'
p4256
aVcherry
p4257
aS'erotokritos'
p4258
aS'reclaimed'
p4259
aS'elf'
p4260
aS'wright'
p4261
aS'spread'
p4262
aS'board'
p4263
aS'nightwalker'
p4264
aS'kosann'
p4265
aS'gorjana'
p4266
aVtransit
p4267
aS'parka-coat'
p4268
aVturquoise
p4269
aS'aubergine'
p4270
aS'maya'
p4271
aS'hollywould'
p4272
aS'ag-adriano-goldschmied'
p4273
aS'shopper-tote'
p4274
aS'momocreatura'
p4275
aS'furmani'
p4276
aS'boxer'
p4277
aS'bando'
p4278
aS'aubade'
p4279
aS'cape'
p4280
aS'aran'
p4281
aS'apart'
p4282
aVscarpa
p4283
aV59
p4284
aVditto
p4285
aVgift
p4286
aS'55'
p4287
aS'lily'
p4288
aS'51'
p4289
aS'50'
p4290
aS'tom-binns'
p4291
aVvestal
p4292
aS'officer'
p4293
aS'eyelet'
p4294
aS'tenki'
p4295
aVjean
p4296
aS'multi-stone'
p4297
aS'arunashi'
p4298
aS'zco'
p4299
aS'jennifer'
p4300
aVborn
p4301
aS'donald'
p4302
aS'grizas'
p4303
aS'cushman'
p4304
aS'currentelliott'
p4305
aVvesper
p4306
aVpearlcluster
p4307
aS'orchid'
p4308
aS'jeanmichel'
p4309
aS'pachacuti'
p4310
aVhumor
p4311
aS'with-love-from-ca'
p4312
aS'christianlouboutin'
p4313
aS'purple'
p4314
aS'reem'
p4315
aS'scholz'
p4316
aS'ice'
p4317
aS'jogging-trouser'
p4318
aS'fob-key'
p4319
aS'georg-jensen'
p4320
aS'lydc'
p4321
aS'mid-rise'
p4322
aS'fratelli'
p4323
aS'dwellstudio'
p4324
aS'cord'
p4325
aS'joyrich'
p4326
aS'dolce'
p4327
aS'damask'
p4328
aVcamper
p4329
aS'vionic'
p4330
aS'coro'
p4331
aS'dusen'
p4332
aS'toryburch'
p4333
aS'onzie'
p4334
aS'stiletto-pump'
p4335
aS'olsen'
p4336
aVpost
p4337
aS'ca4la'
p4338
aS'isolde'
p4339
aS'meyer'
p4340
aS'dotti'
p4341
aS'obi'
p4342
aS'jenna'
p4343
aS'coral'
p4344
aS'plunging'
p4345
aS'plus'
p4346
aS'cake'
p4347
aS'pelcor'
p4348
aS'mismo'
p4349
aS'leprechaun'
p4350
aS'pierlot'
p4351
aS'fur-lined'
p4352
aS'octopus'
p4353
aVosborn
p4354
aS'jacques'
p4355
aS'webb'
p4356
aVabovetheknuckle
p4357
aS'potato'
p4358
aVcivil
p4359
aS'romper-jumpsuit'
p4360
aS'brelli'
p4361
aS'ahr'
p4362
aS'24-karat'
p4363
aS'markus-lupfer'
p4364
aS'ferr'
p4365
aS'wingtip-shoe'
p4366
aVdreyfus
p4367
aVnaturalizer
p4368
aS'roccobarocco'
p4369
aS'drop-waist'
p4370
aVslim
p4371
aS'ole'
p4372
aS'ferdinandsen'
p4373
aS'baldinini'
p4374
aS'soulland'
p4375
aS'elbow-patch'
p4376
aS'wac'
p4377
aS'nonoo'
p4378
aS'zombie'
p4379
aS'belly-button'
p4380
aS'snap-cap'
p4381
aS'way'
p4382
aS'wax'
p4383
aS'gio'
p4384
aS'sakroots'
p4385
aS'ouellette'
p4386
aS'wap'
p4387
aS'sofia'
p4388
aS'head'
p4389
aS'bettie'
p4390
aS'tooshie'
p4391
aS'converse'
p4392
aS'aspca'
p4393
aS'tugendhaft'
p4394
aS'chainmail'
p4395
aVwireless
p4396
aS'tretorn'
p4397
aS'hear'
p4398
aS'lagence'
p4399
aS'true'
p4400
aS'astr'
p4401
aS'missguided'
p4402
aS'ondademar'
p4403
aS'roland-mouret'
p4404
aS'isharya'
p4405
aVquilted
p4406
aS'dollhouse'
p4407
aS'temporarytattoo'
p4408
aS'maniamania'
p4409
aS'lelli'
p4410
aS'crystal'
p4411
aS'duggal'
p4412
aS'crochet-lace'
p4413
aS'vatican'
p4414
aS'usher'
p4415
aVzodiac
p4416
aVrialto
p4417
aVtrim
p4418
aVbrightly
p4419
aS'xiix'
p4420
aS'vittadini'
p4421
aS'navel-ring'
p4422
aS'sinful'
p4423
aS'everest'
p4424
aS'kaftan'
p4425
aS'gypsy05'
p4426
aS'dunay'
p4427
aS'molo'
p4428
aS'mumu'
p4429
aVwhiskered
p4430
aS'check'
p4431
aS'baguette'
p4432
aS'goldtone'
p4433
aS'depeapa'
p4434
aS'skullcandy'
p4435
aS'rebecca-minkoff'
p4436
aS'hidden-wedge-heel'
p4437
aVdestructed
p4438
aS'handmade'
p4439
aS'ne'
p4440
aVtim
p4441
aS'tin'
p4442
aS'kirzhner'
p4443
aS'bora'
p4444
aS'shoji'
p4445
aS'tie'
p4446
aS'skagen'
p4447
aS'nu'
p4448
aS'eternity'
p4449
aS'skovgaard'
p4450
aS'boob'
p4451
aVangie
p4452
aS'lululemon'
p4453
aS'cooper'
p4454
aVomega
p4455
aS'banana-republic'
p4456
aS'diane-von'
p4457
aS'erickson-beamon'
p4458
aS'dulce'
p4459
aS'castaway'
p4460
aVlonger
p4461
aS'bullet'
p4462
aS'urbancode'
p4463
aS'naven'
p4464
aS'ryder'
p4465
aS'collared'
p4466
aS'kangol'
p4467
aS'paige'
p4468
aS'blue-sapphire'
p4469
aS'magli'
p4470
aS'lynn-ban'
p4471
aS'barneys-new'
p4472
aVcoach
p4473
aS'collings'
p4474
aS'gogo-philip'
p4475
aS'marios'
p4476
aS'raffia'
p4477
aS'rof'
p4478
aS'rox'
p4479
aS'roy'
p4480
aS'cheetah-print'
p4481
aS'south-sea'
p4482
aS'meadham'
p4483
aS'mellow'
p4484
aVkrochet
p4485
aS'mounser'
p4486
aS'organic-by-john-patrick'
p4487
aS'tankini-swimsuit-top'
p4488
aVjogger
p4489
aS'double-layer'
p4490
aS'animale'
p4491
aVoz
p4492
aS'cross-strap'
p4493
aS'rhythm'
p4494
aS'jvl'
p4495
aS'bikini-bottom'
p4496
aS'rebecca'
p4497
aS'dex'
p4498
aS'charles'
p4499
aS'fob'
p4500
aS'hannah'
p4501
aVearthies
p4502
aS'hatter'
p4503
aS'hache'
p4504
aS'kitten'
p4505
aS'cook'
p4506
aS'chooka'
p4507
aS'blass'
p4508
aS'lot78'
p4509
aS'qpot'
p4510
aS'kendalljenner'
p4511
aS'swim-bikini'
p4512
aS'level'
p4513
aS'auld'
p4514
aS'jourdan'
p4515
aS'reluxe'
p4516
aS'croptops'
p4517
aVgaucho
p4518
aS'guy'
p4519
aS'woven'
p4520
aS'der'
p4521
aS'clear-lens'
p4522
aS'grifoni'
p4523
aS'aventura'
p4524
aS'brave'
p4525
aVhtc
p4526
aS'baku'
p4527
aS'colin'
p4528
aS'cost'
p4529
aS'oxford-shoe'
p4530
aS'thick-booty'
p4531
aVport
p4532
aVcargo
p4533
aS'azria'
p4534
aS'simeon'
p4535
aS'croft'
p4536
aS'girardperregaux'
p4537
aS'myrtlewood'
p4538
aS'mohapatra'
p4539
aS'eliza'
p4540
aS'shellys'
p4541
aS'celestina'
p4542
aS'525'
p4543
aS'peter-pan-collar'
p4544
aVtoering
p4545
aS'loden'
p4546
aS'benamun'
p4547
aS'valentine-day'
p4548
aS'buscemi'
p4549
aS'lucluccom'
p4550
aVcamisole
p4551
aS'aline'
p4552
aS'muslin'
p4553
aS'monserat'
p4554
aVwater
p4555
aS'giles'
p4556
aS'baseball'
p4557
aS'michi'
p4558
aS'gilet'
p4559
aVcork
p4560
aS'cross-over'
p4561
aS'krejberg'
p4562
aVdropcrotch
p4563
aS'square-toe'
p4564
aVbuco
p4565
aS'comic-book'
p4566
aS'change-purse'
p4567
aS'gryphon'
p4568
aS'fabrizio'
p4569
aS'franklin'
p4570
aS'lorikeet'
p4571
aS'paxton'
p4572
aS'korkease'
p4573
aS'lasonia'
p4574
aS'maison-michel'
p4575
aS'seward'
p4576
aVpillow
p4577
aS'doris'
p4578
aS'paul-joe'
p4579
aS'puffer'
p4580
aVpixy
p4581
aS'saunders'
p4582
aVextra
p4583
aS'tuxedo'
p4584
aS'shark'
p4585
aVkeeper
p4586
aVhightop
p4587
aVrash
p4588
aS'sash-belt'
p4589
aS'dr-marten'
p4590
aS'angora'
p4591
aS'market'
p4592
aS'angelo'
p4593
aS'prova'
p4594
aS'sigerson'
p4595
aS'bernard'
p4596
aS'dalmatian'
p4597
aS'aksu'
p4598
aS'cowl'
p4599
aVwootton
p4600
aS'msp'
p4601
aS'soko'
p4602
aVstacking
p4603
aVlive
p4604
aS'sporto'
p4605
aS'andy'
p4606
aS'bulgari'
p4607
aVmemory
p4608
aS'chaumet'
p4609
aS'jeggings-pant'
p4610
aVathena
p4611
aS'roberto-cavalli'
p4612
aS'bellini'
p4613
aS'conductor'
p4614
aS'siyu'
p4615
aS'chocolate'
p4616
aS'avanessi'
p4617
aS'cami-tank'
p4618
aS'batwing'
p4619
aS'casadei'
p4620
aS'the-row'
p4621
aS'caparros'
p4622
aS'baretraps'
p4623
aS'bobble-hat'
p4624
aS'westwood-anglomania'
p4625
aS'yves'
p4626
aS'wanda'
p4627
aVgraphic
p4628
aS'slogan'
p4629
aS'ferre'
p4630
aS'julius'
p4631
aS'car'
p4632
aS'cap'
p4633
aVhighlow
p4634
aS'jac'
p4635
aS'wewood'
p4636
aS'judy'
p4637
aVelastic
p4638
aS'pochette'
p4639
aS'luella'
p4640
aS'cal'
p4641
aS'pickle'
p4642
aVplum
p4643
aS'fulton'
p4644
aS'natasha'
p4645
aS'hedonia'
p4646
aS'metropark'
p4647
aS'expanding'
p4648
aS'referee'
p4649
aS'nuvula'
p4650
aS'laced-up'
p4651
aV1980s
p4652
aS'hayman'
p4653
aS'lumo'
p4654
aS'regale'
p4655
aVstackable
p4656
aS'clothing'
p4657
aS'cardin'
p4658
aS'chie'
p4659
aS'swedish'
p4660
aS'biasia'
p4661
aS'soleil'
p4662
aS'tfnc'
p4663
aS'plunge-neck'
p4664
aVlacing
p4665
aS'lounge'
p4666
aS'arch-support'
p4667
aS'rubin'
p4668
aS'wildfox'
p4669
aS'lockheart'
p4670
aS'lautre'
p4671
aS'suzannah'
p4672
aS'giamba'
p4673
aS'etched'
p4674
aS'levy'
p4675
aS'ghisellini'
p4676
aVcocktail
p4677
aS'nubuck-leather'
p4678
aS'miss-selfridge'
p4679
aS'mixit'
p4680
aS'push-up'
p4681
aS'maidenart'
p4682
aVlevi
p4683
aS'bodhi'
p4684
aVbear
p4685
aS'floral'
p4686
aS'shiraleah'
p4687
aS'raglansleeved'
p4688
aS'gaultier'
p4689
aS'crepe'
p4690
aS'maiyet'
p4691
aS'fahmy'
p4692
aS'bellezza'
p4693
aS'devi'
p4694
aS'woolrich'
p4695
aS'nataya'
p4696
aS'smocked-top'
p4697
aS'gerard'
p4698
aS'postalco'
p4699
aS'michel'
p4700
aS'harem-pant'
p4701
aS'onepiece-swimwear'
p4702
aS'suunto'
p4703
aS'midnight'
p4704
aS'canary'
p4705
aS'demylee'
p4706
aVstretching
p4707
aS'larimar'
p4708
aS'cole'
p4709
aS'skeleton'
p4710
aS'drapefront'
p4711
aVfoldable
p4712
aS'rosette'
p4713
aS'wallace'
p4714
aS'willow'
p4715
aVdisco
p4716
aS'eyele'
p4717
aS'hanky'
p4718
aVplatform
p4719
aS'officine'
p4720
aVpons
p4721
aS'tiara'
p4722
aS'swimsuit-two-piece'
p4723
aS'laack'
p4724
aS'marzi'
p4725
aS'pierre-balmain'
p4726
aVchelsea
p4727
aS'sunspel'
p4728
aS'noa'
p4729
aVgourmet
p4730
aS'nailhead'
p4731
aS'hale'
p4732
aS'half'
p4733
aVnot
p4734
aS'call-it-spring'
p4735
aS'hall'
p4736
aVhalo
p4737
aS'barrow'
p4738
aVdown
p4739
aVholographic
p4740
aS'name'
p4741
aS'temperley'
p4742
aVopera
p4743
aS'james'
p4744
aVdrop
p4745
aS'playsuit-romper'
p4746
aS'haskell'
p4747
aS'servane'
p4748
aS'el'
p4749
aS'forever-new'
p4750
aS'lambskin'
p4751
aVed
p4752
aS'fob-key-chain'
p4753
aS'goose'
p4754
aS'jeckerson'
p4755
aVreplay
p4756
aS'baffin'
p4757
aS'zebra'
p4758
aS'wylde'
p4759
aS'lowie'
p4760
aS'suzanne'
p4761
aS'bauble'
p4762
aVes
p4763
aS'suzanna'
p4764
aS'pom-pom'
p4765
aS'watanabe'
p4766
aS'otazu'
p4767
aVspace
p4768
aS'anglique'
p4769
aS'guppy'
p4770
aS'pork-pie'
p4771
aS'factory'
p4772
aS'zinke'
p4773
aS'karen-kane'
p4774
aS'whiteley'
p4775
aS'kent'
p4776
aS'grecian'
p4777
aVclover
p4778
aS'hula'
p4779
aS'theory'
p4780
aVthong
p4781
aS'carr'
p4782
aS'bradby'
p4783
aS'patrizia-pepe'
p4784
aVoasis
p4785
aVflyer
p4786
aVcarnelian
p4787
aS'marino'
p4788
aS'marina'
p4789
aS'cara'
p4790
aS'plomo'
p4791
aS'care'
p4792
aS'zig-zag'
p4793
aS'merona'
p4794
aS'zigi'
p4795
aS'dondup'
p4796
aS'envelope-clutch'
p4797
aS'egyptianinspired'
p4798
aS'turn'
p4799
aS'jaegerlecoultre'
p4800
aS'lindsey'
p4801
aS'essie'
p4802
aVfuturistic
p4803
aS'iosselliani'
p4804
aS'511'
p4805
aS'unltd'
p4806
aS'malabar'
p4807
aVorigin
p4808
aS'sanchez'
p4809
aS'axara'
p4810
aS'bling'
p4811
aS'zak'
p4812
aS'zai'
p4813
aS'frill'
p4814
aS'zad'
p4815
aS'zac'
p4816
aS'tanktop'
p4817
aVblink
p4818
aS'kris'
p4819
aS'mixstyle'
p4820
aS'kersh'
p4821
aS'danskin'
p4822
aVring
p4823
aS'chantecler'
p4824
aVpokemon
p4825
aVgeorge
p4826
aS'stand-collar'
p4827
aVengineer
p4828
aS'sheep'
p4829
aVgarcons
p4830
aS'dearfoams'
p4831
aS'checked'
p4832
aS'silent'
p4833
aS'wishbone'
p4834
aS'zip-up'
p4835
aS'hallhuber'
p4836
aS'plastic'
p4837
aVtraction
p4838
aVcognac
p4839
aS'miraclesuit'
p4840
aS'gandini'
p4841
aS'bikini-swimsuit'
p4842
aS'white'
p4843
aS'circa'
p4844
aS'jemma'
p4845
aS'national'
p4846
aS'wooden-heel'
p4847
aS'alaa'
p4848
aS'huf'
p4849
aS'quay'
p4850
aS'courier'
p4851
aS'asymmetric'
p4852
aS'braun'
p4853
aS'sorel'
p4854
aS'forplay'
p4855
aS'holder'
p4856
aS'belly-button-ring'
p4857
aS'ecote'
p4858
aVwide
p4859
aVvelveteen
p4860
aS'cudas'
p4861
aS'merrell'
p4862
aS'nanushka'
p4863
aS'war'
p4864
aS'rugger'
p4865
aS'diavolina'
p4866
aS'velve'
p4867
aVdarkwash
p4868
aS'ewatchfactory'
p4869
aS'rena'
p4870
aS'rene'
p4871
aVana
p4872
aS'snakeskin-print'
p4873
aS'ann'
p4874
aS'premier'
p4875
aS'tartan'
p4876
aVhershey
p4877
aS'aerosoles'
p4878
aVrosebud
p4879
aS'winifred'
p4880
aS'tarte'
p4881
aS'lyralovestar'
p4882
aVmedium
p4883
aS'pin-brooch'
p4884
aS'batting'
p4885
aS'ghos'
p4886
aS'spidergirl'
p4887
aS'fitflop'
p4888
aS'orla-kiely'
p4889
aS'surgical-steel'
p4890
aS'below-knee'
p4891
aS'equipment'
p4892
aS'jami'
p4893
aS'badgley-mischka'
p4894
aS'deux'
p4895
aS'batman'
p4896
aVpalazzo
p4897
aS'canadienne'
p4898
aS'belstaff'
p4899
aS'multiple'
p4900
aVequestrian
p4901
aS'damiani'
p4902
aS'sherman'
p4903
aS'dexterior'
p4904
aS'georgini'
p4905
aS'the-limited'
p4906
aS'flower-print'
p4907
aS'america'
p4908
aS'silk-chiffon'
p4909
aVicon
p4910
aS'latex'
p4911
aS'forever'
p4912
aS'chlobo'
p4913
aS'bateau'
p4914
aS'hurley'
p4915
aVbeaded
p4916
aS'messenger'
p4917
aS'colson'
p4918
aS'soho'
p4919
aS'iska'
p4920
aS'see-through'
p4921
aS'alexander-mcqueen'
p4922
aS'franchi'
p4923
aS'tko'
p4924
aS'scoopneck'
p4925
aS'rabens'
p4926
aS'talbot'
p4927
aS'izabel'
p4928
aS'amedeo'
p4929
aS'malcolm'
p4930
aS'mociun'
p4931
aS'enchanted'
p4932
aS'nemesis'
p4933
aVbrigh
p4934
aS'nali'
p4935
aS'stained'
p4936
aS'jolt'
p4937
aS'shimmer'
p4938
aS'crime'
p4939
aVaubin
p4940
aS'coloriffics'
p4941
aS'wood'
p4942
aS'kenzo'
p4943
aS'ballantyne'
p4944
aVkneelength
p4945
aS'thompson'
p4946
aS'wool'
p4947
aS'tiger-of-sweden'
p4948
aS'panos'
p4949
aS'pumpkin'
p4950
aS'jofama'
p4951
aS'saffiano-leather'
p4952
aVchantal
p4953
aS'der-straeten'
p4954
aVjazz
p4955
aS'truly'
p4956
aS'talitha'
p4957
aS'tailor'
p4958
aS'kiki'
p4959
aS'tocs'
p4960
aS'bustier-corset'
p4961
aVclosure
p4962
aS'krizia'
p4963
aS'ribbed-knit'
p4964
aS'leather'
p4965
aS'slim-fit'
p4966
aS'bisou'
p4967
aS'cover-case'
p4968
aS'coclico'
p4969
aVpaper
p4970
aS'missoni'
p4971
aS'amanda'
p4972
aS'yohji'
p4973
aS'flat-soled'
p4974
aS'square-bangle'
p4975
aS'kiton'
p4976
aVaboveknee
p4977
aS'superdry'
p4978
aS'1921'
p4979
aVslashed
p4980
aS'mikkelsen'
p4981
aS'1928'
p4982
aS'isotoner'
p4983
aS'lna'
p4984
aS'herschel'
p4985
aVhoneydew
p4986
aS'nooka'
p4987
aS'quicksilver'
p4988
aVglaze
p4989
aS'mandarin'
p4990
aVimport
p4991
aS'rose-quartz'
p4992
aS'stateside'
p4993
aS'gilson'
p4994
aS'sapphire'
p4995
aS'yumi'
p4996
aS'matteo'
p4997
aS'carolee'
p4998
aS'aquatalia'
p4999
aS'guitar'
p5000
aS'lagom'
p5001
aS'boum'
p5002
aS'como'
p5003
aS'w118'
p5004
aS'brahe'
p5005
aS'bohinc'
p5006
aVreaction
p5007
aS'nili'
p5008
aS'pacsun'
p5009
aS'snapbacks'
p5010
aS'mono'
p5011
aVelasticstrap
p5012
aS'mont'
p5013
aS'comey'
p5014
aS'berry'
p5015
aVbralette
p5016
aS'catwoman'
p5017
aS'fiorelli'
p5018
aS'seneca'
p5019
aS'color'
p5020
aS'jason-wu'
p5021
aS'alc'
p5022
aVtrio
p5023
aS'pop'
p5024
aS'head-wrap-headband'
p5025
aS'nicoli'
p5026
aS'quiksilver'
p5027
aS'tropez'
p5028
aS'altea'
p5029
aS'nicoll'
p5030
aVpolo
p5031
aS'jeane'
p5032
aS'by-alexander-wang'
p5033
aS'nicole'
p5034
aS'jarmon'
p5035
aS'viyella'
p5036
aVscrunchie
p5037
aVcycling
p5038
aS'stripped'
p5039
aS'howard'
p5040
aS'niczoe'
p5041
aS'carey'
p5042
aS'tie-dyed'
p5043
aS'jon'
p5044
aS'lime-green'
p5045
aS'vince-camuto'
p5046
aVsuperfine
p5047
aS'loureno'
p5048
aS'fittokill'
p5049
aS'opolo'
p5050
aS'taffeta'
p5051
aVrubi
p5052
aS'dorfman'
p5053
aVtiger
p5054
aS'tarina-tarantino'
p5055
aS'dahlia'
p5056
aS'kaos'
p5057
aVandrea
p5058
aS'ruby'
p5059
aS'spirit'
p5060
aVbarrette
p5061
aS'case'
p5062
aS'saloner'
p5063
aS'nassir'
p5064
aS'soleus'
p5065
aS'spiderman'
p5066
aS'cowl-neck'
p5067
aS'jens'
p5068
aS'by-allen-schwartz'
p5069
aS'arnold'
p5070
aS'la-victoire'
p5071
aS'aspinal'
p5072
aS'cosabella'
p5073
aS'maryam'
p5074
aS'lkbennett'
p5075
aVfsny
p5076
aS'perele'
p5077
aS'david-young'
p5078
aS'vest'
p5079
aS'charriol'
p5080
aVzenith
p5081
aS'pippa'
p5082
aS'mossimo'
p5083
aS'chromat'
p5084
aS'gringo'
p5085
aVevening
p5086
aS'mesh-panel'
p5087
aS'furlanetto'
p5088
aS'petunia'
p5089
aS'falke'
p5090
aS'floating'
p5091
aS'muubaa'
p5092
aS'stonecoldfox'
p5093
aValphabet
p5094
aVbowl
p5095
aS'supra'
p5096
aS'cap-toe'
p5097
aS'poetic'
p5098
aVbermuda
p5099
aS'demitasse'
p5100
aS'edwardian'
p5101
aS'manila'
p5102
aVdelias
p5103
aS'othermix'
p5104
aS'cheri'
p5105
aVmilitarystyle
p5106
aS'theallet'
p5107
aS'skemo'
p5108
aS'jack-rogers'
p5109
aS'nest'
p5110
aVfoam
p5111
aS'ness'
p5112
aS'petticoat'
p5113
aS'fruit'
p5114
aS'abalone'
p5115
aS'ssur'
p5116
aS'ethletic'
p5117
aS'botanica'
p5118
aVcartoon
p5119
aS'enchanting'
p5120
aS'handsom'
p5121
aS'moyna'
p5122
aS'designhype'
p5123
aVhaircalf
p5124
aS'patchwork'
p5125
aS'breda'
p5126
aS'no'
p5127
aVwaterresistant
p5128
aS'breeze'
p5129
aVthreader
p5130
aVintropia
p5131
aS'model'
p5132
aS'severi'
p5133
aS'taxi'
p5134
aVclog
p5135
aS'roksanda-ilincic'
p5136
aVleatherstrap
p5137
aS'majorica'
p5138
aVneon
p5139
aS'trixxi'
p5140
aS'funnel-neck'
p5141
aS'roll-neck'
p5142
aS'kill'
p5143
aVlaminating
p5144
aVtouch
p5145
aVpolish
p5146
aS'baldwin'
p5147
aS'sweatpants'
p5148
aS'mjus'
p5149
aS'padovan'
p5150
aS'peter-pan'
p5151
aVmother
p5152
aS'vavra'
p5153
aVrose
p5154
aS'lwren'
p5155
aS'rosa'
p5156
aS'mirrored'
p5157
aS'kimono-robe'
p5158
aS'tonya'
p5159
aS'kimberly'
p5160
aS'pocke'
p5161
aS'birkenstock'
p5162
aS'happy-plug'
p5163
aS'dubuis'
p5164
aS'ca'
p5165
aS'xena'
p5166
aS'alfaro'
p5167
aVswim
p5168
aS'amo'
p5169
aS'virginie'
p5170
aS'off-the-shoulder'
p5171
aS'digital'
p5172
aS'free-people'
p5173
aS'amy'
p5174
aS'earnest'
p5175
aS'dita'
p5176
aS'castana'
p5177
aS'lady'
p5178
aVrear
p5179
aS'shourouk'
p5180
aVchiffonier
p5181
aS'collective'
p5182
aS'1ar'
p5183
aS'bracelet'
p5184
aS'rose-gold'
p5185
aS'elastic-waistband'
p5186
aS'tia'
p5187
aS'kule'
p5188
aS'de-li'
p5189
aS'auren'
p5190
aS'blackberry'
p5191
aS'birger'
p5192
aS'bleach'
p5193
aS'sportmax'
p5194
aVcrafted
p5195
aS'jewellery'
p5196
aS'exposed'
p5197
aS'curran'
p5198
aS'pacific'
p5199
aVglint
p5200
aS'eddie'
p5201
aS'tie-dye'
p5202
aS'indego'
p5203
aVporta
p5204
aS'caribbean'
p5205
aVsling
p5206
aS'mallarino'
p5207
aS'freelook'
p5208
aS'kilian'
p5209
aS'shirtdress'
p5210
aS'buddha'
p5211
aS'guillaume'
p5212
aS'mooz'
p5213
aS'malandrino'
p5214
aS'ranchwear'
p5215
aVretroinspired
p5216
aS'sendra'
p5217
aS'wheat'
p5218
aS'lace-trim'
p5219
aS'asap'
p5220
aVherringbone
p5221
aS'ippolita'
p5222
aS'freede'
p5223
aS'royale'
p5224
aS'bazaar'
p5225
aS'basch'
p5226
aVbrighton
p5227
aS'on'
p5228
aS'beccaria'
p5229
aVpatent
p5230
aS'oh'
p5231
aS'choi'
p5232
aS'cut-offs'
p5233
aS'addition'
p5234
aS'sophia-webster'
p5235
aS'daytrip'
p5236
aS'stand'
p5237
aS'breton'
p5238
aVox
p5239
aS'palma'
p5240
aS'naot'
p5241
aVor
p5242
aS'amber'
p5243
aVtribe
p5244
aS'cambridge'
p5245
aS'aesa'
p5246
aS'deepstyle'
p5247
aS'garnet'
p5248
aS'gara'
p5249
aS'penelope'
p5250
aVearring
p5251
aS'rising'
p5252
aS'rinascimento'
p5253
aVburton
p5254
aS'runwaydreamz'
p5255
aS'cushnie-et-ochs'
p5256
aVyour
p5257
aS'lucchese'
p5258
aVsherpa
p5259
aS'cath'
p5260
aS'chalcedony'
p5261
aS'heach'
p5262
aS'mar'
p5263
aS'glasstop'
p5264
aS'los'
p5265
aVlow
p5266
aS'lou'
p5267
aS'gianvito-rossi'
p5268
aS'vocateur'
p5269
aS'tiffany'
p5270
aS'in-the-dark'
p5271
aS'laneus'
p5272
aS'hard'
p5273
aS'relic'
p5274
aS'grazia'
p5275
aS'fluxus'
p5276
aS'sun-visor'
p5277
aS'beret'
p5278
aS'minkpink'
p5279
aS'mm6-maison'
p5280
aS'organic-cotton'
p5281
aS'square-neck'
p5282
aVcorduroy
p5283
aS'kipling'
p5284
aS'minna'
p5285
aS'fjallraven'
p5286
aVchrono
p5287
aS'bucket'
p5288
aS'freddy'
p5289
aS'amanda-wakeley'
p5290
aVmiguel
p5291
aS'janavi'
p5292
aS'puredkny'
p5293
aS'zents'
p5294
aS'havilland'
p5295
aS'taylor'
p5296
aS'fingerless-glove'
p5297
aS'felix'
p5298
aS'bootie'
p5299
aS'yochi'
p5300
aS'sheath'
p5301
aS'dreamgirl'
p5302
aS'casemate'
p5303
aS'von-furstenberg'
p5304
aS'leroux'
p5305
aS'tshirt'
p5306
aVfoldover
p5307
aS'minaudiere'
p5308
aS'lssig'
p5309
aS'heather'
p5310
aVchaser
p5311
aS'marylai'
p5312
aS'flavio'
p5313
aS'rubber'
p5314
aVthermal
p5315
aS'gigli'
p5316
aS'you'
p5317
aS'5panel'
p5318
aS'top-handle'
p5319
aS'ny'
p5320
aVpolar
p5321
aVnudie
p5322
aS'topshop'
p5323
aS'full-grain-leather'
p5324
aS'pear'
p5325
aVcarpenter
p5326
aS'akribos'
p5327
aS'cb2'
p5328
aS'colomb'
p5329
aVflower
p5330
aS'peak'
p5331
aVcoverage
p5332
aVbrass
p5333
aS'cotton-blend'
p5334
aS'uzi'
p5335
aS'lole'
p5336
aS'aztec-pattern'
p5337
aVtanner
p5338
aS'curve'
p5339
aS'glish'
p5340
aS'krisvanassche'
p5341
aVlightweigh
p5342
aS'corey'
p5343
aVrimmed
p5344
aS'alvina'
p5345
aS'nando'
p5346
aS'npeal'
p5347
aS'apparel'
p5348
aS'blackandwhite'
p5349
aS'redux'
p5350
aS'ferrari'
p5351
aVcrosstraining
p5352
aVall
p5353
aS'timberland'
p5354
aS'swim-cover'
p5355
aS'zalora'
p5356
aS'dog-tag'
p5357
aS'peacock'
p5358
aS'durango'
p5359
aS'baroni'
p5360
aVslimming
p5361
aS'levi-cut-offs'
p5362
aS'spacecraft'
p5363
aS'leith'
p5364
aS'rock-and-roll'
p5365
aS'heart-locket'
p5366
aS'halter-top'
p5367
aS'tkees'
p5368
aS'lace'
p5369
aS'pennyblack'
p5370
aS'jerome'
p5371
aS'antoinette'
p5372
aVsynthetic
p5373
aS'griffin'
p5374
aS'schiff'
p5375
aVlining
p5376
aS'empire'
p5377
aS'balenciaga'
p5378
aS'sparkling'
p5379
aS'fluevog'
p5380
aS'aaron'
p5381
aS'foster'
p5382
aS'danielle'
p5383
aVcopains
p5384
aS'zanzan'
p5385
aS'waverly'
p5386
aS'esther'
p5387
aS'latigo'
p5388
aS'vert'
p5389
aS'egyptian'
p5390
aS'very'
p5391
aS'morais'
p5392
aS'dhoore'
p5393
aS'fat'
p5394
aVsasha
p5395
aS'vera'
p5396
aS'frederic'
p5397
aVlaceup
p5398
aS'bralet'
p5399
aS'sony'
p5400
aS'hemp'
p5401
aS'minden'
p5402
aS'doublefinger'
p5403
aS'audemars'
p5404
aS'and'
p5405
aS'louis'
p5406
aVlist
p5407
aS'grandfather'
p5408
aS'kondo'
p5409
aS'lisa'
p5410
aS'trax'
p5411
aVneoprene
p5412
aVwallflower
p5413
aVten
p5414
aVtea
p5415
aS'nichol'
p5416
aS'ted'
p5417
aVtee
p5418
aS'wainhouse'
p5419
aS'two-piece-swimsuit'
p5420
aS'brilli'
p5421
aS'caravana'
p5422
aVdesign
p5423
aS'nautica'
p5424
aS't-by-alexander'
p5425
aS'ter'
p5426
aS'augusta'
p5427
aS'complice'
p5428
aS'fake-pearl'
p5429
aS'omighty'
p5430
aS'nbd'
p5431
aS'cavallini'
p5432
aS'sud'
p5433
aS'amrapali'
p5434
aS'mblife'
p5435
aS'nana'
p5436
aVsun
p5437
aVbrief
p5438
aS'sui'
p5439
aS'onna'
p5440
aS'vidal'
p5441
aS'bernhard'
p5442
aS'erro'
p5443
aS'dakine'
p5444
aS'1920s'
p5445
aS'deborah'
p5446
aS'citizen-of-humanity'
p5447
aS'argyle'
p5448
aS'christian'
p5449
aS'loose'
p5450
aVskidder
p5451
aS'gstar'
p5452
aS'adriano-goldschmied'
p5453
aVslipon
p5454
aS'kimo'
p5455
aVtrunk
p5456
aS'alberto'
p5457
aS'salomon'
p5458
aS'pretsurf'
p5459
aS'social'
p5460
aS'loma'
p5461
aS'boden'
p5462
aVcolored
p5463
aVahead
p5464
aS'inspired'
p5465
aS'miniature'
p5466
aS'izzue'
p5467
aS'acciaio'
p5468
aS'jw-anderson'
p5469
aS'cathy'
p5470
aVbeatle
p5471
aS'trainer'
p5472
aS'clover-canyon'
p5473
aS'limor'
p5474
aS'antique-gold'
p5475
aS'emitations'
p5476
aS'dooney-bourke'
p5477
aS'temperley-london'
p5478
aS'cosmetic'
p5479
aS'vegan-leather'
p5480
aS'stuart-weitzman'
p5481
aS'poulsen'
p5482
aVchunky
p5483
aS'lagos'
p5484
aS'peppercotton'
p5485
aS'huit'
p5486
aS'rounded-toe'
p5487
aS'sodamix'
p5488
aS'la-perla'
p5489
aS'no-sleeve'
p5490
aS'khan'
p5491
aS'harlequin'
p5492
aS'hermes'
p5493
aS'nipon'
p5494
aS'ebags'
p5495
aVaztecprint
p5496
aS'pebbled-leather'
p5497
aS'prasiolite'
p5498
aVsquaretoe
p5499
aS'gigi'
p5500
aS'single-breasted'
p5501
aVflat
p5502
aVflap
p5503
aS'cheongsam'
p5504
aS'natori'
p5505
aS'dion'
p5506
aS'kothari'
p5507
aS'nieves'
p5508
aS'blumarine'
p5509
aS'flag'
p5510
aS'floyd'
p5511
aS'keyhole'
p5512
aS'dior'
p5513
aS'strenesse'
p5514
aS'slouchy'
p5515
aS'chiara-ferragni'
p5516
aS'gauche'
p5517
aS'amiana'
p5518
aS'eden'
p5519
aS'simone'
p5520
aS'muzi'
p5521
aS'nina'
p5522
aS'little-black'
p5523
aS'nine'
p5524
aS'seafolly'
p5525
aS'dareen'
p5526
aS'teague'
p5527
aS'scherrer'
p5528
aVswash
p5529
aS'alyssa'
p5530
aVnino
p5531
aS'sawaya'
p5532
aS'baggi'
p5533
aVpony
p5534
aS'brown'
p5535
aS'alba'
p5536
aS'antipast'
p5537
aS'kasper'
p5538
aS'pono'
p5539
aVcoop
p5540
aS'celine'
p5541
aS'imitation'
p5542
aS'follie'
p5543
aS'tsumori'
p5544
aS'fuentes'
p5545
aVmagenta
p5546
aS'initial-charm'
p5547
aS'mother-of-pearl'
p5548
aS'jensen'
p5549
aS'cover-ups'
p5550
aS'anne-klein'
p5551
aVcourt
p5552
aS'chaco'
p5553
aS'juicy-couture'
p5554
aS'horn-rimmed-glass'
p5555
aS'coogi'
p5556
aS'lepore'
p5557
aS'naked'
p5558
aS'paloma'
p5559
aVpleather
p5560
aS'banded-collar'
p5561
aS'boardshorts'
p5562
aS'hollister-co'
p5563
aVgoat
p5564
aS'blazin'
p5565
aS'sabine'
p5566
aS'olympia-letan'
p5567
aS'sonia'
p5568
aS'lighting'
p5569
aS'fe'
p5570
aS'cavallari'
p5571
aVfi
p5572
aS'horizontal'
p5573
aVsondra
p5574
aS'svea'
p5575
aVshort
p5576
aS'cloche-hat'
p5577
aS'susan'
p5578
aS'tri-color'
p5579
aS'montblanc'
p5580
aS'monique-lhuillier'
p5581
aS'monica-vinader'
p5582
aS'overnight'
p5583
aS'nadri'
p5584
aS'arizona'
p5585
aS'technomarine'
p5586
aS'wildwood'
p5587
aS'turnover'
p5588
aVkorda
p5589
aS'bico'
p5590
aS'samantha-will'
p5591
aS'flouncy'
p5592
aVslouch
p5593
aS'breckelles'
p5594
aVcross
p5595
aS'cherrykoko'
p5596
aS'manoush'
p5597
aVclipon
p5598
aS'neck-tie'
p5599
aS'brian-atwood'
p5600
aS'hell'
p5601
aS'y3'
p5602
aS'flounce'
p5603
aS'avenue'
p5604
aS'sport-bra'
p5605
aS'fischer'
p5606
aVfoxy
p5607
aS'hendrix'
p5608
aVnordstrom
p5609
aS'millinery'
p5610
aS'rika'
p5611
aS'picard'
p5612
aS'abbey'
p5613
aS'over-coat'
p5614
aS'whyred'
p5615
aS'scognamiglio'
p5616
aS'godmother'
p5617
aS'medium-rise'
p5618
aVprimadonna
p5619
aS'doubleslit'
p5620
aS'pittman'
p5621
aS'scervino'
p5622
aS'michael-michael-kor'
p5623
aVbordello
p5624
aS'silver-plated'
p5625
aS'food'
p5626
aS'madewell'
p5627
aVhunter
p5628
aS'cupcake'
p5629
aS'casio'
p5630
aS'ivanka-trump'
p5631
aS'remington'
p5632
aVfoot
p5633
aS'yu'
p5634
aS'castellani'
p5635
aVmarcus
p5636
aVshamballa
p5637
aS'lizzie'
p5638
aS'twelfth'
p5639
aVtimmy
p5640
aS'heather-benjamin'
p5641
aVnotify
p5642
aS'heavy'
p5643
aS'charcoal-grey'
p5644
aS'manolo-blahnik'
p5645
aVweight
p5646
aS'chesca'
p5647
aVaerin
p5648
aS'blank'
p5649
aS'haley'
p5650
aS'link-of-london'
p5651
aS'gatto'
p5652
aS'todd'
p5653
aS'bindya'
p5654
aS'columbia'
p5655
aS'beyond'
p5656
aVbraided
p5657
aS'lola'
p5658
aS'allsaints'
p5659
aS'marcia'
p5660
aS'leather-trim'
p5661
aS'robert'
p5662
aS'papell'
p5663
aS'hydraulic'
p5664
aS'mead'
p5665
aS'wolverine'
p5666
aS'lucifer'
p5667
aS'kofta'
p5668
aVhill
p5669
aS'14k'
p5670
aS'adidas-original'
p5671
aS'cherry-blossom'
p5672
aS'rhodium'
p5673
aVbenjamin
p5674
aVshearlinglined
p5675
aVrech
p5676
aS'3-stone'
p5677
aVbass
p5678
aS'labe'
p5679
aS'upon'
p5680
aS'de-garons'
p5681
aVstory
p5682
aVdune
p5683
aVorganic
p5684
aS'boucl'
p5685
aS'base'
p5686
aVtiedye
p5687
aS'dirk'
p5688
aS'morello'
p5689
aVash
p5690
aS'stagni'
p5691
aS'bash'
p5692
aS'basi'
p5693
aS'koo'
p5694
aS'thread'
p5695
aS'seahorse'
p5696
aS'judefrances'
p5697
aS'danzis'
p5698
aS'voom'
p5699
aS'lacesleeve'
p5700
aVdaisy
p5701
aS'blush'
p5702
aS'high-waisted'
p5703
aS'urbinati'
p5704
aS'sekonda'
p5705
aS'mr'
p5706
aS'samoon'
p5707
aS'upper'
p5708
aS'empire-waist'
p5709
aS'misc'
p5710
aS'elder'
p5711
aS'bogner'
p5712
aS'wench'
p5713
aS'ferrandis'
p5714
aS'mirrored-lens'
p5715
aS'qipao'
p5716
aS'miss'
p5717
aS'blanc'
p5718
aS'horse'
p5719
aS'grimm'
p5720
aS'nydj'
p5721
aVpaint
p5722
aS'blossom'
p5723
aS'attic'
p5724
aS'body-conscious'
p5725
aS'rainbow-moonstone'
p5726
aVstorm
p5727
aS'fauxleather'
p5728
aS'hundred'
p5729
aS'banana'
p5730
aS'statement'
p5731
aS'zuhair-murad'
p5732
aS'lionette'
p5733
aS'costelloe'
p5734
aVsateen
p5735
aS'jamie'
p5736
aS'houndstooth'
p5737
aS'trapper'
p5738
aS'hidden-platform'
p5739
aS'jordan'
p5740
aS'artigas'
p5741
aS'1911'
p5742
aVwayfarer
p5743
aS'sheer'
p5744
aS'giambattista-valli'
p5745
aS'bustier-top'
p5746
aVtunic
p5747
aVflappocket
p5748
aS'vian'
p5749
aS'quacker'
p5750
aS'grey'
p5751
aS'union-jack'
p5752
aS'aglini'
p5753
aVstu
p5754
aS'teva'
p5755
aVprairie
p5756
aS'cuff'
p5757
aS'boni'
p5758
aS'light-grey'
p5759
aS'aime'
p5760
aS'skingraft'
p5761
aS'dana'
p5762
aS'figue'
p5763
aVfootnote
p5764
aS'llbean'
p5765
aS'renta'
p5766
aS'earflap'
p5767
aS'cleef-arpels'
p5768
aS'kara'
p5769
aS'fiona'
p5770
aS'my'
p5771
aS'kari'
p5772
aS'blackandred'
p5773
aS'vanek'
p5774
aS'reiss'
p5775
aS'moise'
p5776
aVlie
p5777
aVwilson
p5778
aS'jour'
p5779
aS'lia'
p5780
aS'hair-accessory'
p5781
aS'lim'
p5782
aS'scotland'
p5783
aVcamouflage
p5784
aS'labour'
p5785
aVlip
p5786
aS'ibex'
p5787
aS'norma'
p5788
aS'liz'
p5789
aS'david-yurman'
p5790
aS'moschino-cheap-chic'
p5791
aS'kollection'
p5792
aVpatrick
p5793
aS'hair-fascinators'
p5794
aS'desigual'
p5795
aS'warhol'
p5796
aS'kao'
p5797
aVtoestrap
p5798
aS'77'
p5799
aS'aetrex'
p5800
aS'aerie'
p5801
aS'atsuko'
p5802
aS'kat'
p5803
aVwatt
p5804
aValpha
p5805
aS'kay'
p5806
aS'aurlie-bidermann'
p5807
aS'tropical-print'
p5808
aS'jantzen'
p5809
aS'deane'
p5810
aS'dark-grey'
p5811
aVclear
p5812
aS'ziggy'
p5813
aS'cc-skye'
p5814
aS'spira'
p5815
aS'bonpoint'
p5816
aS'laroche'
p5817
aVblend
p5818
aS'tie-back'
p5819
aVstoner
p5820
aS'ghibli'
p5821
aS'rta'
p5822
aS'666'
p5823
aS'shein'
p5824
aS'slim-leg'
p5825
aS'hotel'
p5826
aS'rj-graziano'
p5827
aS'bezel-set'
p5828
aS'stalker'
p5829
aS'jak'
p5830
aS'melody'
p5831
aVsheepskin
p5832
aS'tignanello'
p5833
aVdistressing
p5834
aS'rocket'
p5835
aVzumba
p5836
aS'duncan'
p5837
aS'lauren-conrad'
p5838
aS'lamb-leather'
p5839
aS'ymc'
p5840
aS'7-for-all-mankind'
p5841
aS'bee-goddess'
p5842
aVvneck
p5843
aS'circle'
p5844
aS'marciano'
p5845
aS'thick-heel'
p5846
aS'dosa'
p5847
aVtriangle
p5848
aS'dsquared2'
p5849
aS'plank'
p5850
aValicia
p5851
aS'4us'
p5852
aS'swing'
p5853
aS'whistle'
p5854
aVamici
p5855
aS'cote'
p5856
aS'dinou'
p5857
aS'rocca'
p5858
aS'round-toe'
p5859
aS'i-love'
p5860
aS'alexander'
p5861
aS'monogram'
p5862
aS'barneys-new-york'
p5863
aS'burani'
p5864
aS'benenato'
p5865
aS'wouters'
p5866
aS'lazuli'
p5867
aS'gregson'
p5868
aS'ashley-stewart'
p5869
aS'jennifer-lopez'
p5870
aS'rinaldi'
p5871
aVdouble
p5872
aVhype
p5873
aS'baroque'
p5874
aS'engraved'
p5875
aS'chictopia'
p5876
aVknickers
p5877
aS'tinted-glass'
p5878
aS'art'
p5879
aS'maurice'
p5880
aS'wrist-watch'
p5881
aS'linea-pelle'
p5882
aS'kylie'
p5883
aVroc
p5884
aS'manning'
p5885
aS'pvc'
p5886
aS'true-religion'
p5887
aS'thistle'
p5888
aVduma
p5889
aS'portrait'
p5890
aS'ubiq'
p5891
aS'mixedmetal'
p5892
aVarm
p5893
aS'sportswear'
p5894
aS'barn'
p5895
aS'love-from'
p5896
aS'practice'
p5897
aS'k-jacques'
p5898
aS'diadora'
p5899
aS'inge'
p5900
aVonepiece
p5901
aS'venessa-arizaga'
p5902
aS'michetti'
p5903
aS'klub'
p5904
aS'woo'
p5905
aS'won'
p5906
aS'savitt'
p5907
aVguardian
p5908
aS'moretti'
p5909
aS'matthew-williamson'
p5910
aS'fleur-de-li'
p5911
aS'bibi'
p5912
aS'paisley'
p5913
aS'logoart'
p5914
aS'crislu'
p5915
aS'ziginy'
p5916
aS'chapstick'
p5917
aS'biba'
p5918
aS'komono'
p5919
aS'sold'
p5920
aVsole
p5921
aS'jump-suit'
p5922
aS'ruching'
p5923
aS'jenatheo'
p5924
aS'scallop-hem'
p5925
aS'pull-on'
p5926
aS'bronzo'
p5927
aS'koret'
p5928
aS'lized'
p5929
aS'chisato'
p5930
aS'hidden-wedge'
p5931
aS'zipper'
p5932
aS'bronze'
p5933
aS'winter-white'
p5934
aS'pajar'
p5935
aS'blazer'
p5936
aS'classique'
p5937
aS'biascut'
p5938
aS'isabel-marant'
p5939
aS'herno'
p5940
aS'yoola'
p5941
aVbandit
p5942
aS'adored'
p5943
aVroman
p5944
aS'ruched-waist'
p5945
aVeggplant
p5946
aS'capelli'
p5947
aVbond
p5948
aS'hello-kitty'
p5949
aS'adina-reyter'
p5950
aS'harari'
p5951
aS'sweet'
p5952
aS'toile-isabel'
p5953
aS'dolce-gabbana'
p5954
aS'paillette'
p5955
aS'village'
p5956
aS'bench'
p5957
aVseiko
p5958
aS'aspesi'
p5959
aS'14-karat'
p5960
aS'lesportsac'
p5961
aVroaring
p5962
aS'turnor'
p5963
aS'louis-vuitton'
p5964
aS'double-strap'
p5965
aVpu
p5966
aS'pendleton'
p5967
aS'rvca'
p5968
aS'verameat'
p5969
aS'nicki'
p5970
aVpf
p5971
aS'wraparound'
p5972
aS'napa'
p5973
aS'ocean'
p5974
aS'pj'
p5975
aVextralong
p5976
aS'brick'
p5977
aS'moini'
p5978
aS'side-tie'
p5979
aS'lipsy'
p5980
aS'walter'
p5981
aS'kew159'
p5982
aS'iman'
p5983
aS'flight'
p5984
aS'yossi'
p5985
aVboy
p5986
aS'softwalk'
p5987
aS'leigh'
p5988
aVcitizen
p5989
aS'mary-katrantzou'
p5990
aS'schwab'
p5991
aS'anthony'
p5992
aS'katherine'
p5993
aS'kling'
p5994
aS'cinch'
p5995
aS'station'
p5996
aS'monokini'
p5997
aVtoga
p5998
aS'coccinelle'
p5999
aVhighest
p6000
aS'loom'
p6001
aS'attilio'
p6002
aS'boatneck'
p6003
aVski
p6004
aS'apepazza'
p6005
aS'ravel'
p6006
aS'rope'
p6007
aS'guidi'
p6008
aS'bikini'
p6009
aS'preowned'
p6010
aS'shift'
p6011
aS'luciano'
p6012
aS'fleet'
p6013
aS'paco'
p6014
aS'mitchell'
p6015
aVloop
p6016
aS'pack'
p6017
aS'rodarte'
p6018
aS'michiels'
p6019
aS'garnier'
p6020
aS'strapless'
p6021
aS'melie'
p6022
aVpetal
p6023
aS'bensimon'
p6024
aVembroidered
p6025
aS'rutilated'
p6026
aS'rio'
p6027
aVrim
p6028
aS'halston-heritage'
p6029
aS'full-length'
p6030
aS'vuarnet'
p6031
aS'fannie'
p6032
aS'rib'
p6033
aS'scoop-neck'
p6034
aS'particulier'
p6035
aS'antonoff'
p6036
aS'shaw'
p6037
aS'grant'
p6038
aS'meadowlark'
p6039
aS'shay'
p6040
aS'daniel-wellington'
p6041
aS'eyewear'
p6042
aVdelicious
p6043
aS'kimono'
p6044
aS'dinnigan'
p6045
aS'karl'
p6046
aS'madly'
p6047
aVshae
p6048
aS'swarovski-crystal'
p6049
aS'shan'
p6050
aS'precious-stone'
p6051
aS'pomegranate'
p6052
aS'5-preview'
p6053
aVcement
p6054
aVbirthstone
p6055
aS'001'
p6056
aS'rockabilly'
p6057
aVshibori
p6058
aS'bottega-veneta'
p6059
aVbrocade
p6060
aS'elephan'
p6061
aS'arturo'
p6062
aS'barbara-bui'
p6063
aVinfinity
p6064
aS'activewear'
p6065
aS'ralph-lauren'
p6066
aS'royalty'
p6067
aS'babzoe'
p6068
aS'bantine'
p6069
aS'siman'
p6070
aS'garrard'
p6071
aS'pferdgarten'
p6072
aVdocker
p6073
aVmascot
p6074
aVspun
p6075
aS'anndra'
p6076
aVmarque
p6077
aS'cropped'
p6078
aVstretchleather
p6079
aS'dinny'
p6080
aS'prince'
p6081
aS'patek'
p6082
aS'mcguire'
p6083
aS'adrienne'
p6084
aS'calou'
p6085
aS'azaara'
p6086
aS'ciel'
p6087
aS'carat'
p6088
aS'humanoid'
p6089
aS'maison'
p6090
aS'jw'
p6091
aVanklestrap
p6092
aS'trovata'
p6093
aVfinder
p6094
aS'marco'
p6095
aS'march'
p6096
aS'stein'
p6097
aS'insert'
p6098
aS'fullum'
p6099
aS'hohan'
p6100
aS'lovin'
p6101
aS'galliano'
p6102
aS'donna-karan'
p6103
aVbelly
p6104
aS'mariah'
p6105
aS'giovannio'
p6106
aS'shirred'
p6107
aVshaped
p6108
aS'camerino'
p6109
aS'gurhan'
p6110
aS'audibert'
p6111
aS'cornejo'
p6112
aVeel
p6113
aS'arthur'
p6114
aS'pagani'
p6115
aS'donna'
p6116
aS'armstrong'
p6117
aS'weiner'
p6118
aS'honeycomb'
p6119
aVchronograph
p6120
aS'cashmere-blend'
p6121
aS'ioannis'
p6122
aS'soma'
p6123
aVmauve
p6124
aVcreation
p6125
aVpierre
p6126
aS'scosha'
p6127
aS'harry-winston'
p6128
aVsacha
p6129
aS'kooba'
p6130
aS'uppercut'
p6131
aS'candy'
p6132
aS'bettina'
p6133
aS'wonderland'
p6134
aVmustang
p6135
aS'bathing-suit'
p6136
aS'flippy'
p6137
aS'electric'
p6138
aS'billy'
p6139
aS'nektar'
p6140
aS'rucksack'
p6141
aS'tommy-hilfiger'
p6142
aS'american-eagle'
p6143
aVmachine
p6144
aVforzieri
p6145
aS'slash'
p6146
aS'fracomina'
p6147
aS'anne'
p6148
aS'supergirl'
p6149
aS'anna'
p6150
aS'grundahl'
p6151
aS'foley'
p6152
aS'mullet'
p6153
aS'kobelli'
p6154
aS'martin'
p6155
aS'lu'
p6156
aS'clergerie'
p6157
aS'fit-and-flare'
p6158
aS'juju'
p6159
aS'step'
p6160
aS'sandlau'
p6161
aS'one-piece-swimwear'
p6162
aVraspberry
p6163
aS'agent-provocateur'
p6164
aS'franco'
p6165
aVshine
p6166
aS'chinese-laundry'
p6167
aS'baraschi'
p6168
aS'naturalista'
p6169
aS'bgn'
p6170
aVchico
p6171
aS'hinge'
p6172
aS'kwiat'
p6173
aS'lace-overlay'
p6174
aVheel
p6175
aS'armitron'
p6176
aS'gamme'
p6177
aS'armand'
p6178
aVshiny
p6179
aS'bloch'
p6180
aS'silence'
p6181
aS'bustier'
p6182
aVcutoff
p6183
aS'hair-pin'
p6184
aS'maillot'
p6185
aS'corum'
p6186
aS'sandro'
p6187
aVvagabond
p6188
aS'safety-pin'
p6189
aS'saucony'
p6190
aVbezel
p6191
aS'alison'
p6192
aVoxidized
p6193
aVvineyard
p6194
aS'baggu'
p6195
aS'triangl'
p6196
aS'renewal'
p6197
aS'louche'
p6198
aVxoxo
p6199
aS'pierrelouis'
p6200
aVlong
p6201
aVbaggy
p6202
aS'grisogono'
p6203
aS'wonderbra'
p6204
aS'deep-vneck'
p6205
aVwaistband
p6206
aS'tortoise-shell'
p6207
aS'breitling'
p6208
aS'manufacture'
p6209
aS'patterned'
p6210
aVharem
p6211
aVhighrise
p6212
aS'skorts'
p6213
aVbossi
p6214
aS'cloth'
p6215
aS'mulberry'
p6216
aS'reed'
p6217
aS'urbanears'
p6218
aS'reef'
p6219
aS'montparnasse'
p6220
aS'kg'
p6221
aS'orsini'
p6222
aVscreenprinted
p6223
aS'raccoon'
p6224
aS'simone-rocha'
p6225
aS'penguin'
p6226
aVpaolo
p6227
aS'italina'
p6228
aS'croton'
p6229
aS'dudu'
p6230
aS'paola'
p6231
aS'marco-bicego'
p6232
aS'fenn'
p6233
aS'persun'
p6234
aS'kuhl'
p6235
aS'oscar-de-la-renta'
p6236
aS'christofle'
p6237
aS'rowland'
p6238
aS'purcell'
p6239
aVbell
p6240
aVindividuality
p6241
aS'freak'
p6242
aS'millar'
p6243
aS'pilgrim'
p6244
aS'braganza'
p6245
aS'metale'
p6246
aS'hi-top'
p6247
aS'graham'
p6248
aS'simonetta'
p6249
aS'cotton'
p6250
aS'rainbow'
p6251
aS'color-block'
p6252
aS'naf'
p6253
aS'claudette'
p6254
aS'wickstead'
p6255
aS'madden-girl'
p6256
aS'nak'
p6257
aS'deconstructed'
p6258
aS'deepa-gurnani'
p6259
aS'rolo-chain'
p6260
aS'nam'
p6261
aS'nick'
p6262
aS'lipstik'
p6263
aS'nico'
p6264
aS'nat'
p6265
aS'nau'
p6266
aS'department'
p6267
aS'raina'
p6268
aS'nica'
p6269
aS'manhattan'
p6270
aS'mock'
p6271
aS'dale'
p6272
aS'head-scarf'
p6273
aS'31-phillip-lim'
p6274
aS'fendi'
p6275
aS'mustard'
p6276
aS'snug'
p6277
aS'head-wrap'
p6278
aS'dali'
p6279
aS'william'
p6280
aS'kansai'
p6281
aVworkou
p6282
aS'hi-low'
p6283
aS'leaf'
p6284
aS'bela'
p6285
aS'barrel'
p6286
aVstructure
p6287
aS'hanover'
p6288
aVremix
p6289
aVvice
p6290
aVaeropostale
p6291
aS'dvf'
p6292
aS'nun'
p6293
aVbleached
p6294
aS'heath'
p6295
aS'sachin'
p6296
aS'aiko'
p6297
aS'salvador'
p6298
aS'berman'
p6299
aS'nash'
p6300
aVflexible
p6301
aS'buffalo'
p6302
aS'garrett'
p6303
aS'once'
p6304
aVmardi
p6305
aS'gant'
p6306
aS'kouture'
p6307
aS'vita-fede'
p6308
aS'jumper-sweater'
p6309
aVgy
p6310
aS'gx'
p6311
aS'steve'
p6312
aS'gf'
p6313
aS'ge'
p6314
aVgc
p6315
aS'gang'
p6316
aS'amelia'
p6317
aS'muveil'
p6318
aVgolf
p6319
aS'mysuelly'
p6320
aS'kate'
p6321
aS'arik'
p6322
aS'brim-hat'
p6323
aVsimon
p6324
aS'matiko'
p6325
aS'shanghai'
p6326
aS'mackenziechilds'
p6327
aS'keds'
p6328
aS'moisture-wicking'
p6329
aS'xxiv'
p6330
aS'antique'
p6331
aS'cezanne'
p6332
aS'rag'
p6333
aS'g2'
p6334
aS'g1'
p6335
aS'fishnet'
p6336
aS'gina'
p6337
aS'ecco'
p6338
aVengineered
p6339
aS'givenchy'
p6340
aS'alden'
p6341
aS'illia'
p6342
aS'knee-high'
p6343
aS'loriblu'
p6344
aS'cover-up'
p6345
aS'duffy'
p6346
aS'hunkemller'
p6347
aVbutton
p6348
aS'drape-front'
p6349
aVmichael
p6350
aS'ryan'
p6351
aS'trouv'
p6352
aS'lambswool'
p6353
aS'tosca'
p6354
aS'ankle-boot'
p6355
aVnoten
p6356
aS'pollini'
p6357
aS'barbara'
p6358
aS'dark-wash'
p6359
aS'claudia'
p6360
aS'juma'
p6361
aS'zo'
p6362
aVbooty
p6363
aS'carter'
p6364
aS'dagmar'
p6365
aS'pleat'
p6366
aS'bernardo'
p6367
aS'honora'
p6368
aS'fold'
p6369
aS'gienchi'
p6370
aS'noise'
p6371
aS'toile'
p6372
aS'go'
p6373
aVacid
p6374
aS'vaubel'
p6375
aS'south'
p6376
aS'bdg'
p6377
aVopaque
p6378
aS'pignatelli'
p6379
aS'nardelli'
p6380
aS'mixed-metal'
p6381
aS'polo-ralph'
p6382
aS'dunn'
p6383
aS'gn'
p6384
aS'attire'
p6385
aS'nicholas'
p6386
aS'canali'
p6387
aS'single-shoulder'
p6388
aS'role-play-costume'
p6389
aS'chose'
p6390
aVdegree
p6391
aS'hi-lo'
p6392
aS'valextra'
p6393
aS'lamberto'
p6394
aS'faconnable'
p6395
aS'brooch'
p6396
aS'vibskov'
p6397
aS'vibram'
p6398
aS'shock-absorbing'
p6399
aS'engraving'
p6400
aS'yayoi'
p6401
aS'rosary'
p6402
aVdistressed
p6403
aS'vbh'
p6404
aS'solvar'
p6405
aS'spinel'
p6406
aS'charmeuse'
p6407
aS'club-l'
p6408
aS'kristin'
p6409
aS'yvel'
p6410
aS'dolcegabbana'
p6411
aVgene
p6412
aS'lafonn'
p6413
aVwig
p6414
aS'apple'
p6415
aVclark
p6416
aS'heart'
p6417
aS'vacheron'
p6418
aS'puella'
p6419
aS'o-neill'
p6420
aS'aruna'
p6421
aS'vivetta'
p6422
aS'dark-blue'
p6423
aS'kristina'
p6424
aVduck
p6425
aS'apc'
p6426
aS'cowlneck'
p6427
aS'greg'
p6428
aS'cloud'
p6429
aS'ape'
p6430
aS'lanston'
p6431
aS'witchery'
p6432
aS'from'
p6433
aS'figure'
p6434
aS'ted-baker'
p6435
aS'fron'
p6436
aS'hand-of-god'
p6437
aVhudson
p6438
aS'miu-miu'
p6439
aS'inez'
p6440
aS'snood'
p6441
aS'feu'
p6442
aS'olive-green'
p6443
aS'eshaya'
p6444
aVdolmansleeve
p6445
aS'nancy-gonzalez'
p6446
aS'jonathan'
p6447
aS'pleated'
p6448
aS'prps'
p6449
aS'sort'
p6450
aS'local'
p6451
aS'tangerine'
p6452
aS'about'
p6453
aVymi
p6454
aS'shearling'
p6455
aS'rabbit'
p6456
aS'fennell'
p6457
aS'priya'
p6458
aS'elie-saab'
p6459
aS'pocahontas'
p6460
aS'nyla'
p6461
aS'superga'
p6462
aS'meek'
p6463
aS'duster'
p6464
aS'tusk'
p6465
aVtinted
p6466
aS'salar'
p6467
aVkicker
p6468
aS'salat'
p6469
aS'rossi'
p6470
aVmeet
p6471
aVmcohen
p6472
aS'hulk'
p6473
aS'semi-precious'
p6474
aVproof
p6475
aVcontrol
p6476
aS'hip'
p6477
aS'bcbgeneration'
p6478
aS'piko'
p6479
aVkenny
p6480
aS'pellatfinet'
p6481
aS'quinny'
p6482
aS'lace-up'
p6483
aS'chunky-heel'
p6484
aS'knot-front'
p6485
aS'american-apparel'
p6486
aS'carrot'
p6487
aS'hilton'
p6488
aS'tam'
p6489
aVtan
p6490
aS'locking'
p6491
aVskirt
p6492
aS'tai'
p6493
aS'bochic'
p6494
aS'martucci'
p6495
aVlegging
p6496
aS'united'
p6497
aS'fortunato'
p6498
aS'itsy'
p6499
aVwaterproof
p6500
aVnars
p6501
aS'biarritz'
p6502
aS'camille'
p6503
aS'brian'
p6504
aVcamilla
p6505
aS'percossi'
p6506
aS'volant'
p6507
aS'neuls'
p6508
aS'vaneli'
p6509
aVcuffed
p6510
aVembellished
p6511
aS'low-back'
p6512
aS'harding'
p6513
aS'helmut-lang'
p6514
aS'jucca'
p6515
aS'peace'
p6516
aS'ronald'
p6517
aS'lotan'
p6518
aVmen
p6519
aS'lillys'
p6520
aS'by-malene-birger'
p6521
aVkigurumi
p6522
aS'sidney'
p6523
aS'mabille'
p6524
aVcorral
p6525
aS'emanuel'
p6526
aS'scoop'
p6527
aVclaire
p6528
aS'humr'
p6529
aS'necklace'
p6530
aS'strongwater'
p6531
aS'disturbia'
p6532
aS'jolie'
p6533
aS'martini'
p6534
aS'nickel-free'
p6535
aS'breast'
p6536
aS'flapper'
p6537
aS'bathing'
p6538
aS'damsel'
p6539
aVharajuku
p6540
aS'wawa'
p6541
aVcostume
p6542
aS'charlene'
p6543
aS'light-wash'
p6544
aS'round-collar'
p6545
aS'round-neckline'
p6546
aS'abercrombie-fitch'
p6547
aVbrook
p6548
aS'pura'
p6549
aS'slip-resistant'
p6550
aS'tyler'
p6551
aS'turban'
p6552
aS'trench-coat'
p6553
aS'orange'
p6554
aVcovered
p6555
aVhommes
p6556
aS'mid-thigh'
p6557
aS'setting'
p6558
aS'belted'
p6559
aVrsvp
p6560
aS'sarto'
p6561
aS'pure'
p6562
aVoxblood
p6563
aS'material'
p6564
aS'versace'
p6565
aS'aquazzura'
p6566
aS'arlotta'
p6567
aS'alberta-ferretti'
p6568
aVbertie
p6569
aVcaramel
p6570
aS'nyc'
p6571
aVfront
p6572
aVwetlook
p6573
aS'bikini-swimwear'
p6574
aS'rock-crystal'
p6575
aS'loungefly'
p6576
aS'traa'
p6577
aS'eina'
p6578
aS'tran'
p6579
aS'sunseeker'
p6580
aS'trimmed'
p6581
aVslide
p6582
aS'cocoon'
p6583
aS'candela'
p6584
aS'nfy'
p6585
aS'blue-sky'
p6586
aS'mija'
p6587
aS'lilac'
p6588
aS'sorrelli'
p6589
aS'ostwald'
p6590
aS'flower-corsage'
p6591
aS'multicolored'
p6592
aS'bowback'
p6593
aS'kitten-heel'
p6594
aS'sorial'
p6595
aS'morton'
p6596
aS'liujo'
p6597
aVout
p6598
aS'geox'
p6599
aS'epoque'
p6600
aS'menbur'
p6601
aVgoatskin
p6602
aS'armor'
p6603
aS'naeem'
p6604
aS'aryn'
p6605
aS'moxy'
p6606
aVumbrella
p6607
aS'pullover-sweater'
p6608
aS'tamtam'
p6609
aS'masscob'
p6610
aS'styleonme'
p6611
aS'molly'
p6612
aS'diagonal'
p6613
aS'maree'
p6614
aS'finger-tip'
p6615
aVwizard
p6616
aS'jill'
p6617
aS'amato'
p6618
aVmoore
p6619
aS'gryson'
p6620
aS'tulle'
p6621
aS'princess'
p6622
aS'nishi'
p6623
aS'ashish'
p6624
aS'timex'
p6625
aS'lancel'
p6626
aS'saberi'
p6627
aS'runhof'
p6628
aS'nine-west'
p6629
aS'silver-tone'
p6630
aS'kees'
p6631
aS'silvian'
p6632
aS'horace'
p6633
aS'keep'
p6634
aS'keen'
p6635
aS'garber'
p6636
aS'caia'
p6637
aS'cain'
p6638
aS'orciani'
p6639
aS'mare'
p6640
aS'j-brand'
p6641
aS'eleventy'
p6642
aVbouquet
p6643
aS'yoni'
p6644
aS'echo'
p6645
aS'zadig-voltaire'
p6646
aVfiligree
p6647
aS'light-brown'
p6648
aS'gazinskaya'
p6649
aS'unger'
p6650
aS'mak'
p6651
aS'theia'
p6652
aS'chinti'
p6653
aVbuttondown
p6654
aS'mal'
p6655
aS'attack'
p6656
aS'stephan'
p6657
aS'lookbookstore'
p6658
aS'frdrique'
p6659
aS'townsend'
p6660
aS'beard'
p6661
aS'sisley'
p6662
aS'shell'
p6663
aS'viktor'
p6664
aS'fuzzi'
p6665
aS'lemlem'
p6666
aS'rhinestone'
p6667
aS'corset-bustier'
p6668
aS'bieber'
p6669
aVvas
p6670
aS'fuzzy'
p6671
aS'koolaburra'
p6672
aS'rsq'
p6673
aS'neck'
p6674
aS'assous'
p6675
aVagadrianogoldschmied
p6676
aS'ben'
p6677
aVliquid
p6678
aS'heunis'
p6679
aVara
p6680
aS'armani-exchange'
p6681
aS'bec'
p6682
aS'bea'
p6683
aS'lion'
p6684
aVbed
p6685
aS'bee'
p6686
aS'bex'
p6687
aS'low-heel'
p6688
aS'leslie'
p6689
aVmetalframe
p6690
aS'bodice'
p6691
aS'spurr'
p6692
aS'maloles'
p6693
aS'esposito'
p6694
aS'calida'
p6695
aVclip
p6696
aVsplatter
p6697
aS'cohen'
p6698
aVgalactic
p6699
aS'ivory'
p6700
aS'asics'
p6701
aS'neen'
p6702
aS'premiata'
p6703
aS'pour-la-victoire'
p6704
aVgoodie
p6705
aVfaux
p6706
aVburnt
p6707
aS'border'
p6708
aS'vison'
p6709
aS'ark'
p6710
aS'valitutti'
p6711
aS'etes'
p6712
aS'bourne'
p6713
aS'luisa'
p6714
aS'alterna'
p6715
aS'skaist'
p6716
aS'rip-curl'
p6717
aS'so'
p6718
aS'martha'
p6719
aVvisor
p6720
aS'brand'
p6721
aVligia
p6722
aVcombat
p6723
aS'tshirts'
p6724
aVcaftan
p6725
aS'jorge'
p6726
aS'veronique'
p6727
aS'viktoria'
p6728
aS'deena'
p6729
aS'lace-detail'
p6730
aS'class'
p6731
aS'clasp'
p6732
aS'cavalli'
p6733
aS'polyester'
p6734
aS'laurent'
p6735
aVpeplum
p6736
aS'short-sleeve'
p6737
aS'carolina-herrera'
p6738
aS'ancient-greek'
p6739
aVdent
p6740
aS'causse'
p6741
aS'issey-miyake'
p6742
aS'eshakti'
p6743
aS'lombardini'
p6744
aS'holstein'
p6745
aVguard
p6746
aS'mascia'
p6747
aS'multiple-chain'
p6748
aS'laltramoda'
p6749
aS'lorna'
p6750
aVtobi
p6751
aVparker
p6752
aS'0039'
p6753
aS'belkin'
p6754
aS'tye-dye'
p6755
aS'cushion-cut'
p6756
aS'bum'
p6757
aS'crate'
p6758
aS'wigsbuy'
p6759
aS'dip-dye'
p6760
aS'fetherston'
p6761
aS'dorothy'
p6762
aS'ottoman'
p6763
aS'karssen'
p6764
aVcreamed
p6765
aS'lariat'
p6766
aS'boucle'
p6767
aS'yves-saint-laurent'
p6768
aS'royal-blue'
p6769
aS'teese'
p6770
aVhighheel
p6771
aS'bug'
p6772
aS'rast'
p6773
aS'arabian'
p6774
aS'piana'
p6775
aS'comba'
p6776
aVstudded
p6777
aS'comptoir-de-cotonniers'
p6778
aVheartshaped
p6779
aS'boris'
p6780
aVearbud
p6781
aS'cuero'
p6782
aS'overall'
p6783
aS'cimarron'
p6784
aS'mesh-back'
p6785
aS'watercolor'
p6786
aS'swirl'
p6787
aS'lpez'
p6788
aS't-strap'
p6789
aS'tba'
p6790
aS'floral-garland'
p6791
aS'gray'
p6792
aVchampagne
p6793
aVweatherproof
p6794
aVgras
p6795
aS'mexx'
p6796
aVtopaz
p6797
aS'adeen'
p6798
aS'beryll'
p6799
aS'10-crosby'
p6800
aS'qi'
p6801
aVsteelers
p6802
aS'fasciani'
p6803
aS'tahari'
p6804
aS'navarra'
p6805
aS'widow'
p6806
aS'levian'
p6807
aS'luxx'
p6808
aS'canino'
p6809
aS'balconette-bra'
p6810
aS'bellfield'
p6811
aS'ryka'
p6812
aVsalmon
p6813
aS'yosi'
p6814
aS'roque'
p6815
aVrosie
p6816
aS'powder'
p6817
aS'waistcoat-vest'
p6818
aS'violet'
p6819
aS'anita-ko'
p6820
aS'kimchi'
p6821
aS'libeco'
p6822
aS'dannijo'
p6823
aS'braid'
p6824
aS'small-heel'
p6825
aVcloset
p6826
aS'beading'
p6827
aS'vinoodh'
p6828
aS'broach'
p6829
aS'xray'
p6830
aVsilicone
p6831
aVstate
p6832
aS'roher'
p6833
aS'despi'
p6834
aVpanty
p6835
aVclosed
p6836
aS'twistband'
p6837
aVonly
p6838
aS'leight'
p6839
aS'tent'
p6840
aS'thorlos'
p6841
aS'gold-plated'
p6842
aS'funktional'
p6843
aVbloomingdales
p6844
aS'joy'
p6845
aS'cacoon'
p6846
aS'isol'
p6847
aS'joa'
p6848
aS'longchamp'
p6849
aVjoe
p6850
aS'key'
p6851
aS'underwear'
p6852
aS'avon'
p6853
aVhobo
p6854
aVkep
p6855
aS'wilbur'
p6856
aS'polo-ralph-lauren'
p6857
aS'orelia'
p6858
aS'proenza-schouler'
p6859
aS'aqua'
p6860
aS'kincaid'
p6861
aS'apex'
p6862
aVswarovski
p6863
aS'grain'
p6864
aS'constantine'
p6865
aS'mercier'
p6866
aS'tactical'
p6867
aVbronx
p6868
aVjersey
p6869
aS'walg'
p6870
aS'spandex'
p6871
aS'underligne'
p6872
aS'tuesday'
p6873
aS'oris'
p6874
aS'anja'
p6875
aS'martinica'
p6876
aS'of-sweden'
p6877
aS'garde'
p6878
aS'bumble-bee'
p6879
aVfishhook
p6880
aS'kalan'
p6881
aS'organic-by-john'
p6882
aS'gildan'
p6883
aS'borsalino'
p6884
aS'polizzi'
p6885
aVsara
p6886
aVbordeaux
p6887
aVmonk
p6888
aS'yak'
p6889
aS'quin'
p6890
aS'rebecca-taylor'
p6891
aS'lucite'
p6892
aS'elevenparis'
p6893
aS'nickel'
p6894
aS'house-of-harlow'
p6895
aS'mika'
p6896
aVvince
p6897
aS'muhlbauer'
p6898
aS'filippa'
p6899
aS'alice-olivia'
p6900
aS'smoking'
p6901
aS'antik-batik'
p6902
aS'garmin'
p6903
aS'hair-comb'
p6904
aS'low-waist'
p6905
aS'twist'
p6906
aS'corset'
p6907
aVrom
p6908
aS'wilt'
p6909
aS'norway'
p6910
aS'bahama'
p6911
aS'chamak'
p6912
aS'dark-denim'
p6913
aS'roll-top'
p6914
aVwill
p6915
aS'bearpaw'
p6916
aS'gucci'
p6917
aS'kavu'
p6918
aS'loungewear'
p6919
aS'madeleine'
p6920
aS'vicky'
p6921
aS'tie-belt'
p6922
aVtapered
p6923
aS'bolero'
p6924
aVtaupe
p6925
aS'oceanaut'
p6926
aS'gestuz'
p6927
aS'sixty'
p6928
aS'evelyn'
p6929
aS'fair-isle'
p6930
aS'princess-cut-diamond'
p6931
aS'surface'
p6932
aVdemi
p6933
aS'pip'
p6934
aS'galaxy-smartphone'
p6935
aVlightweight
p6936
aS'ave'
p6937
aS'honey-comb'
p6938
aS'ava'
p6939
aS'floor-length'
p6940
aS'iachi'
p6941
aS'rosetti'
p6942
aS'broke'
p6943
aS'owen-lily'
p6944
aS'beach-coverups'
p6945
aS'balloon'
p6946
aVpaperbag
p6947
aS'molinari'
p6948
aS'haider'
p6949
aVmember
p6950
aS'murano'
p6951
aS'asymmetrical-zip'
p6952
aS'jennifer-behr'
p6953
aVunderground
p6954
aS'one-piece-bathing-suit'
p6955
aS'mauro'
p6956
aS'solange'
p6957
aS'privileged'
p6958
aS'double-strand'
p6959
aS'goddis'
p6960
aS'michelle'
p6961
aVannie
p6962
aS'oaf'
p6963
aS'ankh'
p6964
aVuniform
p6965
aS'octagon'
p6966
aVfauxsuede
p6967
aS'french-hook'
p6968
aS'vanessa-mooney'
p6969
aS'suzi'
p6970
aS'audley'
p6971
aS'microfiber'
p6972
aS'collar'
p6973
aS'mich'
p6974
aS'avindy'
p6975
aVceltic
p6976
aS'ashley'
p6977
aS'kurt-geiger'
p6978
aS'larkspur-hawk'
p6979
aS'banded'
p6980
aS'fever'
p6981
aS'light-blue'
p6982
aS'key-chain'
p6983
aS'credit-card-holder-wallet'
p6984
aS'vincent'
p6985
aS'studdedcollar'
p6986
aS'hamilton'
p6987
aS'maurices'
p6988
aS'cameo'
p6989
aS'messeca'
p6990
aS'camel'
p6991
aS'redwhiteandblue'
p6992
aS'fire-opal'
p6993
aS'high-rise'
p6994
aS'sofie'
p6995
aS'cell-phone'
p6996
aS'mighty'
p6997
aVdistant
p6998
aS'low-cut'
p6999
aS'oska'
p7000
aS'lauren'
p7001
aS'moma'
p7002
aS'azalea'
p7003
aS'sku'
p7004
aS'florsheim'
p7005
aS'vivo'
p7006
aS'victoria-beckham'
p7007
aS'vida'
p7008
aVpoint
p7009
aS'over-the-shoulder'
p7010
aS'patricia'
p7011
aS'c9'
p7012
aS'the'
p7013
aS'goodwood'
p7014
aS'stella-mccartney'
p7015
aS'formentini'
p7016
aS'buccellati'
p7017
aVcircular
p7018
aVbuxton
p7019
aS'mischa'
p7020
aVnubuck
p7021
aVceleste
p7022
aS'henri-bendel'
p7023
aS'minnetonka'
p7024
aS'jeanpierre'
p7025
aS'sick'
p7026
aVlayering
p7027
aS'crushed'
p7028
aS'kayne'
p7029
aS'palmtrees'
p7030
aS'knot'
p7031
aS'roeckl'
p7032
aS'khaki'
p7033
aS'of-harlow-1960'
p7034
aS'teri'
p7035
aS'lost'
p7036
aS'eric'
p7037
aS'starry'
p7038
aS'american-flag'
p7039
aS'fernando'
p7040
aS'clown'
p7041
aS'roth'
p7042
aS'skater'
p7043
aS'cutler'
p7044
aS'kawasaki'
p7045
aS'page'
p7046
aS'pin-up'
p7047
aS'battaglia'
p7048
aS'gillian'
p7049
aS'vegan'
p7050
aS'amerileather'
p7051
aS'aropostale'
p7052
aS'junk'
p7053
aS'library'
p7054
aS'armani-collezioni'
p7055
aS'haute-hippie'
p7056
aS'chavez'
p7057
aVwarmer
p7058
aS'shes'
p7059
aS'trucker'
p7060
aS'home'
p7061
aS'jlo'
p7062
aS'peter'
p7063
aS'expresso'
p7064
aS'iscream'
p7065
aS'zanerobe'
p7066
aS'jeremy'
p7067
aVhighwaist
p7068
aS'rina'
p7069
aS'overlay'
p7070
aS'seletti'
p7071
aS'kettle'
p7072
aS'sally'
p7073
aS'bee-charming'
p7074
aS'fishne'
p7075
aVpolishing
p7076
aS'wong'
p7077
aS'wendy'
p7078
aS'kwei'
p7079
aS'warby'
p7080
aS'peachoo'
p7081
aS'fanny'
p7082
aS'pulpo'
p7083
aVripped
p7084
aVcoated
p7085
aS'obey'
p7086
aS'hush-puppy'
p7087
aS'dangling'
p7088
aS'wilmont'
p7089
aS'choker'
p7090
aS'losani'
p7091
aS'waris'
p7092
aS'bellerose'
p7093
aVfluorescent
p7094
aS'kitsch'
p7095
aS'placke'
p7096
aS'alexander-wang'
p7097
aS'olia'
p7098
aVextension
p7099
aVsaddle
p7100
aS'universe'
p7101
aS'ndc'
p7102
aVduo
p7103
aS'zubeldia'
p7104
aS'stella-dot'
p7105
aS'aquascutum'
p7106
aVswear
p7107
aS'beige'
p7108
aVmudd
p7109
aS'farylrobin'
p7110
aS'owl'
p7111
aVreptile
p7112
aS'ab-by-allen'
p7113
aS'nintendo'
p7114
aVheadphone
p7115
aS'raquel'
p7116
aS'brush'
p7117
aS'dresswe'
p7118
aS'ea7'
p7119
aS'utility'
p7120
aS'cut-off'
p7121
aVvan
p7122
aS'daniele'
p7123
aS'cinderella'
p7124
aS'spiral'
p7125
aS'continental'
p7126
aVatkinson
p7127
aVdeerskin
p7128
aS'vichy'
p7129
aS'daniela'
p7130
aS'mohair'
p7131
aS'pyrus'
p7132
aS'vanessa-bruno'
p7133
aS'bidjan'
p7134
aS'king-baby'
p7135
aS'ferrar'
p7136
aS'kensie'
p7137
aS'checkbook'
p7138
aS'triangular'
p7139
aS'zagliani'
p7140
aVho
p7141
aS'cape-coat'
p7142
aS'hm'
p7143
aS'jennifer-fisher'
p7144
aS'denham'
p7145
aS'gaia'
p7146
aVear
p7147
aS'rowallan'
p7148
aS'inc-international'
p7149
aS'apt-9'
p7150
aS'made'
p7151
aS'austin'
p7152
aS'grommet'
p7153
aVwingtip
p7154
aS'monokini-swimsuit'
p7155
aS'lve'
p7156
aS'biani'
p7157
aS'benetton'
p7158
aS'limit'
p7159
aS'comme-de'
p7160
aS'tema'
p7161
aS'rosantica'
p7162
aS'giudi'
p7163
aVpiece
p7164
aS'paul-smith'
p7165
aS'signet'
p7166
aS'giada'
p7167
aS'mackie'
p7168
aVblock
p7169
aS'hilfiger'
p7170
aS'iphone'
p7171
aS'cigarette-trouser'
p7172
aVpenny
p7173
aS'sellam'
p7174
aS'maroon'
p7175
aS'erin'
p7176
aS'akong'
p7177
aS'jenni'
p7178
aS'et'
p7179
aS'appetime'
p7180
aS'campomaggi'
p7181
aS'rothco'
p7182
aS'azzaro'
p7183
aVchampion
p7184
aS'mancini'
p7185
aS'folio'
p7186
aS'rochas'
p7187
aS'kain'
p7188
aVfolie
p7189
aVbaretrap
p7190
aS'bounkit'
p7191
aS'brooke'
p7192
aS'barth'
p7193
aS'chemise'
p7194
aS'other'
p7195
aS'diego'
p7196
aS'drome'
p7197
aS'bitton'
p7198
aS'gmez'
p7199
aS'acrylic'
p7200
aS'vivienne-westwood-red'
p7201
aS'highslit'
p7202
aS'erica'
p7203
aVstar
p7204
aVsherp
p7205
aS'mid-calf'
p7206
aS'victoriassecret'
p7207
aS'optique'
p7208
aS'ettika'
p7209
aS'gun-metal'
p7210
aS'margaret'
p7211
aS'foil'
p7212
aS'are'
p7213
aS'paula-bianco'
p7214
aS'pinup'
p7215
aS'sheri'
p7216
aS'yell'
p7217
aS'grevi'
p7218
aS'citizen-of'
p7219
aS'cincher'
p7220
aS'weiland'
p7221
aS'samsung'
p7222
aS'faux-pearl'
p7223
aS'lakeland'
p7224
aS'jewel'
p7225
aS'calf-hair'
p7226
aS'poplin'
p7227
aS'international-concept'
p7228
aS'heidi'
p7229
aS'cinched'
p7230
aS'jogger-sweatpants'
p7231
aS'jil-sander'
p7232
aS'enamore'
p7233
atRp7234
.